ccopy_reg
_reconstructor
p0
(ckeras.preprocessing.text
Tokenizer
p1
c__builtin__
object
p2
Ntp3
Rp4
(dp5
S'lower'
p6
I01
sS'word_index'
p7
(dp8
S'limited'
p9
I1359
sS'neurofibromatosis'
p10
I892
sS'extracurricular'
p11
I1457
sS'implants'
p12
I978
sS'yellow'
p13
I1056
sS'obstruction'
p14
I652
sS'dysplasia'
p15
I1333
sS'clotted'
p16
I292
sS'frostbite'
p17
I1146
sS'appetite'
p18
I295
sS'localized'
p19
I1217
sS'penile'
p20
I905
sS'ventral'
p21
I1060
sS'blacking'
p22
I144
sS'under'
p23
I253
sS'hypercholesterolemia'
p24
I539
sS'humerus'
p25
I839
sS'hormone'
p26
I85
sS'hypertensive'
p27
I194
sS'nodules'
p28
I549
sS'amaurosis'
p29
I1534
sS"driver's"
p30
I1466
sS'manic'
p31
I685
sS'nodule'
p32
I1005
sS'proctitis'
p33
I651
sS'anemia'
p34
I197
sS'school'
p35
I1322
sS'loneliness'
p36
I1480
sS'systemic'
p37
I1053
sS'cholesterol'
p38
I951
sS'direct'
p39
I1092
sS'nail'
p40
I933
sS'second'
p41
I178
sS'blue'
p42
I774
sS'giardia'
p43
I1573
sS'nec'
p44
I107
sS'poison'
p45
I257
sS'condyloma'
p46
I1449
sS'bipolar'
p47
I683
sS'new'
p48
I161
sS'jaundice'
p49
I1210
sS'injections'
p50
I926
sS'distention'
p51
I1135
sS'unconscous'
p52
I328
sS'miscarriage'
p53
I395
sS'detoxification'
p54
I379
sS'pancreas'
p55
I715
sS'multiphasic'
p56
I712
sS'postop'
p57
I109
sS'study'
p58
I177
sS'disfunctions'
p59
I573
sS'smoke'
p60
I699
sS'changes'
p61
I655
sS'oligomenorrhea'
p62
I1595
sS'inlaws'
p63
I1189
sS'psychological'
p64
I296
sS'carinii'
p65
I751
sS'unit'
p66
I837
sS'hospital'
p67
I1093
sS'lyme'
p68
I748
sS'foster'
p69
I1274
sS"crohn's"
p70
I645
sS'fainting'
p71
I65
sS'wart'
p72
I1442
sS'infusion'
p73
I929
sS'hurt'
p74
I1178
sS'grief'
p75
I1252
sS'adult'
p76
I488
sS"behcet's"
p77
I744
sS'hold'
p78
I939
sS'mycoses'
p79
I1063
sS'tonsillitis'
p80
I956
sS'intake'
p81
I501
sS'divorced'
p82
I1192
sS'work'
p83
I923
sS'worn'
p84
I342
sS"raynaud's"
p85
I454
sS'elbow'
p86
I267
sS'my'
p87
I1566
sS'compulsive'
p88
I1434
sS'hemoglobin'
p89
I1134
sS'household'
p90
I696
sS'keratitis'
p91
I1474
sS'counseling'
p92
I73
sS'pulmonale'
p93
I606
sS'worse'
p94
I909
sS'aging'
p95
I862
sS'tenosynovitis'
p96
I1316
sS'travel'
p97
I765
sS'damage'
p98
I1149
sS'revisit'
p99
I913
sS'hot'
p100
I721
sS'aching'
p101
I461
sS'tympanic'
p102
I1520
sS'fever'
p103
I47
sS'sicca'
p104
I1475
sS'arthritis'
p105
I633
sS'abdomen'
p106
I709
sS'lab'
p107
I462
sS'iud'
p108
I1422
sS'types'
p109
I1098
sS'attempt'
p110
I955
sS'scleroderma'
p111
I1048
sS'earwick'
p112
I823
sS'ambulance'
p113
I741
sS'reflux'
p114
I1025
sS'melena'
p115
I387
sS'over'
p116
I307
sS'sickle'
p117
I520
sS'gastrointestinal'
p118
I445
sS'forehead'
p119
I262
sS'personal'
p120
I171
sS'recreational'
p121
I1590
sS'better'
p122
I908
sS'urination'
p123
I128
sS'diseases'
p124
I100
sS'weakness'
p125
I58
sS'atherosclerosis'
p126
I1367
sS'detachment'
p127
I1546
sS'therapy'
p128
I444
sS'effects'
p129
I1000
sS'prostheses'
p130
I1390
sS'tuberculin'
p131
I1601
sS'noncompliance'
p132
I593
sS"willebrand's"
p133
I1350
sS'lacerations'
p134
I45
sS'constipation'
p135
I302
sS'prepuce'
p136
I1583
sS'cardiopulmonary'
p137
I1246
sS'epidural'
p138
I826
sS'marital'
p139
I1257
sS'aids'
p140
I779
sS'emphysema'
p141
I1404
sS'medicine'
p142
I1587
sS'rh'
p143
I481
sS'hysterosalpingogram'
p144
I1288
sS'threatened'
p145
I484
sS'cirrhosis'
p146
I718
sS'renew'
p147
I54
sS'preoperative'
p148
I1097
sS'grade'
p149
I1455
sS'hearing'
p150
I512
sS'adopted'
p151
I1273
sS'another'
p152
I1181
sS'electronic'
p153
I808
sS'dysfunction'
p154
I513
sS'lawsuits'
p155
I1201
sS'holter'
p156
I1113
sS'vagina'
p157
I1486
sS'mastitis'
p158
I1088
sS'too'
p159
I590
sS'legs'
p160
I207
sS'thyrotoxicosis'
p161
I1330
sS'glucose'
p162
I129
sS'intestine'
p163
I598
sS'pharyngitis'
p164
I1235
sS'leaking'
p165
I1304
sS'prosthetic'
p166
I976
sS'prolapse'
p167
I571
sS'palsy'
p168
I880
sS'colitis'
p169
I412
sS'anxiety'
p170
I1432
sS'bloated'
p171
I206
sS'pneumonia'
p172
I261
sS'boil'
p173
I164
sS'iron'
p174
I331
sS'feeling'
p175
I112
sS'recheck'
p176
I912
sS'septicemia'
p177
I1321
sS'anus'
p178
I315
sS'myositis'
p179
I1309
sS'raw'
p180
I438
sS'adhd'
p181
I1249
sS'urinate'
p182
I407
sS'corns'
p183
I935
sS'ray'
p184
I769
sS'relapse'
p185
I174
sS'stents'
p186
I1077
sS'phototherapy'
p187
I833
sS'urinalysis'
p188
I1167
sS'chest'
p189
I589
sS'ingrown'
p190
I990
sS'cleft'
p191
I1430
sS'tibia'
p192
I804
sS'circles'
p193
I252
sS'agitans'
p194
I1403
sS'regular'
p195
I714
sS'carcinoma'
p196
I931
sS'scripts'
p197
I55
sS'exercises'
p198
I785
sS'genital'
p199
I757
sS'medical'
p200
I66
sS'camp'
p201
I1462
sS'curvatures'
p202
I1037
sS'disruptions'
p203
I1194
sS'poisonous'
p204
I693
sS'urgency'
p205
I345
sS'pollen'
p206
I1164
sS'fingers'
p207
I97
sS'ulcer'
p208
I286
sS'carotid'
p209
I616
sS'abcses'
p210
I1517
sS'consciousness'
p211
I492
sS'acne'
p212
I1225
sS'sugar'
p213
I87
sS'maturation'
p214
I1279
sS'screening'
p215
I548
sS'stabbing'
p216
I244
sS'personality'
p217
I1464
sS'congenital'
p218
I1392
sS'stasis'
p219
I455
sS'umbilical'
p220
I221
sS'psychiatric'
p221
I375
sS'tuberculosis'
p222
I755
sS'staphylococcal'
p223
I753
sS'runs'
p224
I76
sS'rectal'
p225
I287
sS'patch'
p226
I1493
sS'bad'
p227
I236
sS'shots'
p228
I1139
sS'ears'
p229
I1376
sS'human'
p230
I350
sS'peripheral'
p231
I213
sS'testing'
p232
I494
sS'pads'
p233
I1216
sS'radius'
p234
I840
sS'depressive'
p235
I662
sS'hammer'
p236
I1240
sS'connective'
p237
I1032
sS'unable'
p238
I1400
sS'finger'
p239
I52
sS'occupational'
p240
I1357
sS'tolerance'
p241
I323
sS'conization'
p242
I1551
sS'weak'
p243
I575
sS'boss'
p244
I1398
sS'larynx'
p245
I992
sS'genitourinary'
p246
I353
sS'here'
p247
I1241
sS'defiance'
p248
I1281
sS'accident'
p249
I22
sS'ill'
p250
I303
sS'ventricular'
p251
I363
sS'laryngitis'
p252
I1234
sS'pre'
p253
I635
sS'keloid'
p254
I421
sS'tubercolosis'
p255
I1356
sS'cholelithiasis'
p256
I717
sS'pregnancy'
p257
I41
sS'refill'
p258
I119
sS'abdominal'
p259
I9
sS'plantar'
p260
I1047
sS'extraction'
p261
I1555
sS'musculoskeletal'
p262
I564
sS'drugs'
p263
I698
sS'bladder'
p264
I216
sS'child'
p265
I634
sS'bronchopneumonia'
p266
I568
sS'air'
p267
I1145
sS'calcium'
p268
I533
sS'aid'
p269
I1031
sS'cane'
p270
I1500
sS'diaphragm'
p271
I1512
sS'perineal'
p272
I903
sS'streptococcal'
p273
I900
sS'ureter'
p274
I1363
sS'sting'
p275
I264
sS'iv'
p276
I928
sS'need'
p277
I1561
sS'tissue'
p278
I1033
sS'in'
p279
I31
sS'scaliness'
p280
I1420
sS'abscess'
p281
I134
sS'percutaneous'
p282
I1556
sS'wound'
p283
I153
sS'dryness'
p284
I1418
sS'sinusitis'
p285
I1236
sS'complex'
p286
I1160
sS'potentially'
p287
I692
sS'scapula'
p288
I949
sS'myocardial'
p289
I871
sS'instrumentation'
p290
I1142
sS'xeromammography'
p291
I1118
sS'hand'
p292
I29
sS'regurgitation'
p293
I389
sS'catheter'
p294
I772
sS'discoloration'
p295
I248
sS'narrow'
p296
I778
sS'mother'
p297
I1283
sS'the'
p298
I44
sS'endometriosis'
p299
I1336
sS'left'
p300
I82
sS'spermatic'
p301
I1585
sS'dyspareunia'
p302
I1318
sS'unemployment'
p303
I1401
sS'bronchospasm'
p304
I624
sS'fullness'
p305
I1232
sS'previous'
p306
I478
sS'thyroid'
p307
I899
sS'cervix'
p308
I1483
sS'atrial'
p309
I602
sS'syncope'
p310
I143
sS'character'
p311
I1465
sS'hay'
p312
I1162
sS'spasms'
p313
I11
sS'scrotum'
p314
I371
sS'fracture'
p315
I133
sS'rosacea'
p316
I427
sS'involuntary'
p317
I843
sS'possible'
p318
I720
sS'contractures'
p319
I500
sS'pilonidal'
p320
I424
sS'birth'
p321
I1577
sS'burns'
p322
I377
sS'advanced'
p323
I468
sS'shoulder'
p324
I68
sS'brought'
p325
I355
sS'hematemisis'
p326
I581
sS'specific'
p327
I815
sS'malnutrition'
p328
I544
sS'night'
p329
I1426
sS'right'
p330
I83
sS'old'
p331
I1244
sS'collarbone'
p332
I948
sS'crown'
p333
I1491
sS'rhinitis'
p334
I1001
sS'altered'
p335
I661
sS'incontinence'
p336
I1301
sS'for'
p337
I42
sS'icd'
p338
I1078
sS'nearsightedness'
p339
I1564
sS'syphilis'
p340
I1004
sS'cord'
p341
I1091
sS'esophagitis'
p342
I1021
sS'dental'
p343
I849
sS'burn'
p344
I1061
sS'metastatic'
p345
I1152
sS'losing'
p346
I1598
sS'cardiomyopathy'
p347
I359
sS'post'
p348
I71
sS'herpes'
p349
I578
sS'foreskin'
p350
I1584
sS'limitation'
p351
I503
sS'rheumatoid'
p352
I1028
sS'vaginal'
p353
I90
sS'nerve'
p354
I830
sS'tetanus'
p355
I965
sS'ppd'
p356
I1600
sS'carpal'
p357
I881
sS'pps'
p358
I792
sS'diverticulosis'
p359
I647
sS'urticaria'
p360
I429
sS'vaccination'
p361
I966
sS'fight'
p362
I243
sS'stuck'
p363
I560
sS'flatulance'
p364
I1213
sS'contusions'
p365
I217
sS'intolerance'
p366
I314
sS'head'
p367
I81
sS'forming'
p368
I1343
sS'failure'
p369
I202
sS'heat'
p370
I1588
sS'diaper'
p371
I1575
sS'blindness'
p372
I1538
sS'pustule'
p373
I437
sS'reproductive'
p374
I945
sS'extremity'
p375
I62
sS'devices'
p376
I977
sS'amniocentesis'
p377
I805
sS'complications'
p378
I466
sS'medication'
p379
I19
sS'pimples'
p380
I1226
sS'exotropia'
p381
I1540
sS'muscular'
p382
I888
sS'gland'
p383
I1325
sS'a1c'
p384
I1132
sS'tooth'
p385
I60
sS'check'
p386
I30
sS'physical'
p387
I239
sS'circulatory'
p388
I446
sS'lymphosarcoma'
p389
I1385
sS'floor'
p390
I742
sS'holding'
p391
I381
sS'test'
p392
I53
sS'polyuria'
p393
I1425
sS'implant'
p394
I290
sS'depot'
p395
I1138
sS'erosion'
p396
I1501
sS'tia'
p397
I619
sS'ovaries'
p398
I1338
sS'discharge'
p399
I86
sS'flushed'
p400
I771
sS'pierced'
p401
I1377
sS'hemophilia'
p402
I1344
sS'polypection'
p403
I1558
sS'antibiotics'
p404
I113
sS'gonorrhea'
p405
I1003
sS'time'
p406
I1010
sS"sjogen's"
p407
I1050
sS'urinary'
p408
I149
sS'broke'
p409
I321
sS'llq'
p410
I139
sS'adhesions'
p411
I644
sS'gallbladder'
p412
I612
sS'skin'
p413
I25
sS'battle'
p414
I1259
sS'extremities'
p415
I511
sS'retention'
p416
I235
sS'suicide'
p417
I954
sS'disorders'
p418
I499
sS'environment'
p419
I1144
sS'appendicitis'
p420
I1284
sS'circumstances'
p421
I497
sS'ulna'
p422
I841
sS'brown'
p423
I365
sS'yeast'
p424
I1072
sS'treadmill'
p425
I1440
sS'fibrocystic'
p426
I1087
sS'trouble'
p427
I124
sS'previa'
p428
I476
sS'respiratory'
p429
I230
sS'prophylactic'
p430
I958
sS'level'
p431
I582
sS'tear'
p432
I1523
sS'brother'
p433
I1190
sS'hemothorax'
p434
I628
sS'section'
p435
I480
sS'upper'
p436
I32
sS'findings'
p437
I1117
sS'eating'
p438
I439
sS'bacterial'
p439
I415
sS'port'
p440
I970
sS'colic'
p441
I17
sS'blotches'
p442
I251
sS'falling'
p443
I1393
sS'procidentia'
p444
I1339
sS'pvc'
p445
I610
sS'doing'
p446
I1412
sS'norplant'
p447
I1379
sS'water'
p448
I104
sS'stem'
p449
I1444
sS'teacher'
p450
I999
sS'change'
p451
I1562
sS'molestation'
p452
I1451
sS'boy'
p453
I1460
sS"turner's"
p454
I1533
sS'male'
p455
I1370
sS'ekg'
p456
I1112
sS'hbg'
p457
I1131
sS'diagnosed'
p458
I465
sS'cyst'
p459
I111
sS'oppositional'
p460
I1280
sS'studies'
p461
I118
sS'rheumatic'
p462
I1353
sS'bloody'
p463
I364
sS'epididymitis'
p464
I1582
sS'sweating'
p465
I584
sS'working'
p466
I1282
sS'senile'
p467
I673
sS'positive'
p468
I384
sS'visit'
p469
I152
sS'tachycardia'
p470
I362
sS'unconfirmed'
p471
I724
sS'resuscitation'
p472
I1360
sS'ischemic'
p473
I864
sS'menstrual'
p474
I944
sS'dermatophytoses'
p475
I1067
sS'tinea'
p476
I1071
sS'leeches'
p477
I1170
sS'vulvitis'
p478
I1342
sS'visual'
p479
I1567
sS'deformed'
p480
I1528
sS'car'
p481
I94
sS'cap'
p482
I1490
sS'flu'
p483
I960
sS'premarital'
p484
I1264
sS'sour'
p485
I659
sS'bites'
p486
I196
sS'heart'
p487
I130
sS'stream'
p488
I552
sS'stroke'
p489
I618
sS'battered'
p490
I1270
sS'intermenstrual'
p491
I916
sS'clothing'
p492
I858
sS'redness'
p493
I255
sS'thrombophlebitis'
p494
I988
sS'monitoring'
p495
I809
sS'dialysis'
p496
I937
sS'discussion'
p497
I1099
sS'cystocele'
p498
I1334
sS'immune'
p499
I543
sS'deviated'
p500
I626
sS'pectoris'
p501
I866
sS'may'
p502
I850
sS'aicd'
p503
I1074
sS'cardiac'
p504
I311
sS'spondylosis'
p505
I1052
sS'folliculitis'
p506
I418
sS'stress'
p507
I1441
sS'neck'
p508
I33
sS'sp'
p509
I1437
sS'sclerosis'
p510
I801
sS'triglyceride'
p511
I1599
sS'quadrant'
p512
I37
sS'uteri'
p513
I1340
sS'swollen'
p514
I214
sS'talk'
p515
I185
sS'shoes'
p516
I1498
sS'transplants'
p517
I1443
sS'freckles'
p518
I254
sS'epilepsy'
p519
I1323
sS'brain'
p520
I115
sS'polycystic'
p521
I1337
sS'cuts'
p522
I46
sS'cold'
p523
I526
sS'blocked'
p524
I1317
sS'ascaris'
p525
I1169
sS'police'
p526
I220
sS'monitor'
p527
I1114
sS'wring'
p528
I559
sS'decreased'
p529
I294
sS'touching'
p530
I914
sS'not'
p531
I156
sS'discuss'
p532
I523
sS'nos'
p533
I8
sS'down'
p534
I334
sS'myxedema'
p535
I1329
sS'venogram'
p536
I1293
sS"another's"
p537
I1183
sS'fistula'
p538
I522
sS'ejaculation'
p539
I1408
sS'growths'
p540
I848
sS'abnormal'
p541
I88
sS'breakthrough'
p542
I919
sS'whiplash'
p543
I1352
sS'metrorrhagia'
p544
I917
sS'sexually'
p545
I556
sS'girl'
p546
I1461
sS'disasters'
p547
I855
sS'tried'
p548
I1177
sS'intercourse'
p549
I1319
sS'thirst'
p550
I1269
sS'perineum'
p551
I973
sS'paroxysmal'
p552
I608
sS'hcg'
p553
I725
sS"plantar's"
p554
I790
sS'vaginitis'
p555
I736
sS'pessary'
p556
I832
sS'postoperative'
p557
I289
sS'diagnostic'
p558
I722
sS'bumps'
p559
I514
sS'unwanted'
p560
I1580
sS'lump'
p561
I508
sS'rlq'
p562
I138
sS'card'
p563
I1102
sS'care'
p564
I225
sS'training'
p565
I183
sS'vision'
p566
I579
sS'childhood'
p567
I1276
sS'frequent'
p568
I1086
sS'hemorrhoids'
p569
I902
sS'gunshot'
p570
I1026
sS"baker's"
p571
I1034
sS'nutritional'
p572
I529
sS'croup'
p573
I1233
sS'ring'
p574
I1380
sS'open'
p575
I168
sS'size'
p576
I775
sS'little'
p577
I1209
sS'lymphadenopathy'
p578
I452
sS'white'
p579
I366
sS'nutrition'
p580
I546
sS'eyes'
p581
I203
sS'hyperuricemia'
p582
I875
sS'vdrl'
p583
I670
sS'gastroenteritis'
p584
I1572
sS'pathogens'
p585
I1355
sS'than'
p586
I760
sS'boyfriend'
p587
I860
sS'vulvar'
p588
I1121
sS'mutilation'
p589
I1176
sS'poisoning'
p590
I957
sS'and'
p591
I5
sS'illness'
p592
I308
sS'intrauterine'
p593
I473
sS'lice'
p594
I1171
sS'abnormalities'
p595
I372
sS'any'
p596
I1085
sS'lumps'
p597
I515
sS'radiculitis'
p598
I1312
sS'clots'
p599
I431
sS'multiple'
p600
I127
sS'normal'
p601
I981
sS'trach'
p602
I972
sS'assault'
p603
I1120
sS'tract'
p604
I186
sS'complaints'
p605
I301
sS'knee'
p606
I56
sS'duodenum'
p607
I1017
sS'renal'
p608
I391
sS'infections'
p609
I299
sS'hungry'
p610
I502
sS'pernicious'
p611
I622
sS'mri'
p612
I562
sS'stockings'
p613
I1496
sS'duplication'
p614
I1530
sS'obstructive'
p615
I625
sS'walking'
p616
I1499
sS'shot'
p617
I565
sS'germal'
p618
I786
sS'femur'
p619
I802
sS'tiredness'
p620
I336
sS'removed'
p621
I1603
sS'going'
p622
I574
sS'black'
p623
I1013
sS'apheresis'
p624
I818
sS'clubfoot'
p625
I1526
sS'routine'
p626
I347
sS"barter's"
p627
I532
sS'outlet'
p628
I897
sS"cattleman's"
p629
I745
sS"wilson's"
p630
I547
sS'stoma'
p631
I291
sS'rejuvenation'
p632
I835
sS'parasitic'
p633
I675
sS'esophageal'
p634
I1020
sS'husband'
p635
I1265
sS'gout'
p636
I874
sS'veneral'
p637
I799
sS'alcoholism'
p638
I1185
sS'college'
p639
I1452
sS'angina'
p640
I865
sS'surgery'
p641
I665
sS'concern'
p642
I1275
sS'dysentery'
p643
I1570
sS'voluntary'
p644
I1242
sS'crooked'
p645
I1239
sS'review'
p646
I1175
sS'sites'
p647
I737
sS'procedures'
p648
I816
sS'pump'
p649
I828
sS'complexion'
p650
I1084
sS'between'
p651
I918
sS'ruptured'
p652
I317
sS'arrival'
p653
I326
sS'parent'
p654
I1272
sS'flow'
p655
I1594
sS'steroid'
p656
I1140
sS'diverticulitis'
p657
I646
sS'coma'
p658
I327
sS'cervical'
p659
I813
sS'reaction'
p660
I464
sS'dates'
p661
I477
sS'region'
p662
I228
sS'hypoglycemia'
p663
I541
sS's'
p664
I1
sS'disappointment'
p665
I853
sS'pcp'
p666
I749
sS"can't"
p667
I343
sS'cancer'
p668
I621
sS'synovitis'
p669
I1314
sS'color'
p670
I441
sS'dislocations'
p671
I272
sS'period'
p672
I521
sS'colon'
p673
I1212
sS'dislocation'
p674
I1527
sS'custody'
p675
I1258
sS'dropsy'
p676
I212
sS'cramps'
p677
I10
sS'late'
p678
I356
sS'unusual'
p679
I583
sS'dyslexia'
p680
I1251
sS'immunodeficiency'
p681
I946
sS'breath'
p682
I656
sS'pinworms'
p683
I1173
sS'barre'
p684
I885
sS'exhaustion'
p685
I337
sS'followup'
p686
I641
sS'measles'
p687
I555
sS'wounds'
p688
I664
sS'cystitis'
p689
I397
sS'ophthalmia'
p690
I1472
sS'hernia'
p691
I376
sS'diffuse'
p692
I304
sS'myelogram'
p693
I1290
sS'enteritis'
p694
I1571
sS'premature'
p695
I609
sS'cast'
p696
I1204
sS"meniere's"
p697
I1519
sS'ongoing'
p698
I911
sS'deformities'
p699
I1089
sS'alcoholic'
p700
I640
sS'mucus'
p701
I1515
sS'strain'
p702
I953
sS'ivp'
p703
I1289
sS'ivy'
p704
I425
sS'pap'
p705
I1510
sS'doctor'
p706
I80
sS'pay'
p707
I1298
sS'same'
p708
I637
sS'mole'
p709
I1506
sS'thinning'
p710
I1007
sS'speech'
p711
I1591
sS'coworkers'
p712
I1399
sS'graft'
p713
I187
sS'lumbago'
p714
I1308
sS'lymphomas'
p715
I1383
sS'hemocult'
p716
I1514
sS'cholecystectomy'
p717
I1552
sS'obstetrical'
p718
I983
sS'guillain'
p719
I884
sS'bronchiolitis'
p720
I623
sS'passing'
p721
I146
sS'inhalation'
p722
I691
sS'no'
p723
I14
sS'without'
p724
I1154
sS'harelip'
p725
I1531
sS'edema'
p726
I147
sS'scabies'
p727
I1174
sS'electrolyte'
p728
I536
sS'death'
p729
I470
sS'asthma'
p730
I259
sS'phlebitis'
p731
I987
sS'except'
p732
I333
sS'shingles'
p733
I796
sS'treatment'
p734
I620
sS'ama'
p735
I1103
sS'psa'
p736
I558
sS'stools'
p737
I69
sS'early'
p738
I1054
sS'diaphoresis'
p739
I587
sS'orthopedic'
p740
I1497
sS'grid'
p741
I1560
sS'bandage'
p742
I678
sS'acute'
p743
I293
sS'nose'
p744
I234
sS'intestinal'
p745
I16
sS'amblyopia'
p746
I1536
sS'imprisonment'
p747
I1199
sS'perspiration'
p748
I585
sS'specified'
p749
I663
sS'hemorrhage'
p750
I617
sS'viral'
p751
I348
sS'cavity'
p752
I1057
sS'tube'
p753
I551
sS'fluids'
p754
I1180
sS'legal'
p755
I1198
sS'hives'
p756
I420
sS'deficit'
p757
I1109
sS'provider'
p758
I762
sS'ultrasonography'
p759
I597
sS'fractures'
p760
I271
sS'guaiac'
p761
I1513
sS'uterine'
p762
I195
sS'itching'
p763
I491
sS'nails'
p764
I735
sS'pancytopenia'
p765
I1347
sS'on'
p766
I222
sS'of'
p767
I12
sS'paralysis'
p768
I844
sS'hiatus'
p769
I1059
sS'clavicle'
p770
I947
sS'tumor'
p771
I284
sS'bronchitis'
p772
I396
sS'bone'
p773
I406
sS'or'
p774
I39
sS'op'
p775
I636
sS'checkup'
p776
I430
sS'aortic'
p777
I601
sS'hypothermia'
p778
I1147
sS'burning'
p779
I150
sS'inclusion'
p780
I383
sS'splint'
p781
I1205
sS'spinal'
p782
I570
sS'involvement'
p783
I495
sS'homeless'
p784
I856
sS'hyperglycemia'
p785
I324
sS'radiology'
p786
I1285
sS'concussive'
p787
I135
sS'area'
p788
I116
sS'cath'
p789
I971
sS'gravis'
p790
I891
sS'low'
p791
I63
sS'allergic'
p792
I380
sS'intoxication'
p793
I231
sS'hesitancy'
p794
I1294
sS'with'
p795
I151
sS'scoliosis'
p796
I1049
sS'aneurysm'
p797
I447
sS'dirty'
p798
I1302
sS'moles'
p799
I1505
sS'wants'
p800
I184
sS'palate'
p801
I1525
sS'taste'
p802
I660
sS'an'
p803
I1243
sS'hypertension'
p804
I193
sS'girlfriend'
p805
I861
sS'meningitis'
p806
I600
sS'monilia'
p807
I1066
sS'vocational'
p808
I1592
sS'field'
p809
I1568
sS'immunity'
p810
I525
sS'poor'
p811
I545
sS'includes'
p812
I240
sS'retardation'
p813
I442
sS'ileitis'
p814
I649
sS'spouse'
p815
I1111
sS'missed'
p816
I730
sS'gastric'
p817
I158
sS'wife'
p818
I1266
sS"athlete's"
p819
I1064
sS'ingestion'
p820
I690
sS'mass'
p821
I224
sS'cpr'
p822
I1361
sS'ringworm'
p823
I1069
sS'starting'
p824
I1295
sS'all'
p825
I306
sS'influenza'
p826
I963
sS'embolism'
p827
I449
sS'keratosis'
p828
I422
sS'lack'
p829
I340
sS'worms'
p830
I1503
sS'surgical'
p831
I270
sS'disc'
p832
I739
sS'overdose'
p833
I703
sS'follow'
p834
I190
sS'osteoporosis'
p835
I1045
sS'removal'
p836
I155
sS'to'
p837
I24
sS'biliary'
p838
I613
sS'dressing'
p839
I677
sS'cervicitis'
p840
I780
sS'degeneration'
p841
I1543
sS'sprains'
p842
I519
sS'postphlebitic'
p843
I453
sS'fat'
p844
I851
sS'vera'
p845
I1388
sS'ultraviolet'
p846
I838
sS'fall'
p847
I38
sS'glomerulonephritis'
p848
I398
sS'salmonella'
p849
I1574
sS'condition'
p850
I78
sS'neurological'
p851
I1079
sS'dysrhythmias'
p852
I604
sS'large'
p853
I1424
sS'desertion'
p854
I1261
sS'adjust'
p855
I817
sS'small'
p856
I599
sS'anal'
p857
I411
sS'asymptomatic'
p858
I1411
sS'neighborhood'
p859
I1481
sS'phlebothrombosis'
p860
I989
sS'ted'
p861
I1495
sS'cerebrovascular'
p862
I378
sS'rhogam'
p863
I964
sS'rate'
p864
I667
sS'poliomyelitis'
p865
I791
sS'functioning'
p866
I1075
sS'toilet'
p867
I182
sS'tularemia'
p868
I756
sS'sun'
p869
I930
sS'dribbling'
p870
I940
sS'stool'
p871
I368
sS'ovarian'
p872
I493
sS'conjunctivitis'
p873
I1471
sS'run'
p874
I341
sS'movement'
p875
I232
sS"bartholin's"
p876
I1123
sS'tags'
p877
I904
sS'scanty'
p878
I1593
sS'loose'
p879
I75
sS'urethritis'
p880
I404
sS'vomiting'
p881
I580
sS'trunk'
p882
I516
sS'stupor'
p883
I330
sS'temperomandibular'
p884
I1416
sS'stiffness'
p885
I504
sS'social'
p886
I814
sS'toxicity'
p887
I695
sS'lymphadenitis'
p888
I451
sS'picc'
p889
I969
sS'hidradenitis'
p890
I419
sS"dupuytren's"
p891
I1039
sS'tightness'
p892
I505
sS'family'
p893
I942
sS'cosmetic'
p894
I1100
sS'appliances'
p895
I1489
sS'vertebrae'
p896
I1168
sS'eye'
p897
I160
sS'demyelinating'
p898
I883
sS'needlestick'
p899
I974
sS'encopresis'
p900
I1303
sS'injury'
p901
I21
sS'minor'
p902
I1375
sS'testes'
p903
I435
sS'company'
p904
I997
sS'outpatient'
p905
I496
sS'cellulitis'
p906
I165
sS'pollenosis'
p907
I1166
sS'puerperium'
p908
I467
sS'blemishes'
p909
I1228
sS'none'
p910
I1409
sS'irritations'
p911
I782
sS'mall'
p912
I1271
sS'learn'
p913
I180
sS'knocked'
p914
I98
sS'cardioversion'
p915
I819
sS'spontaneous'
p916
I483
sS'history'
p917
I704
sS'scan'
p918
I1115
sS'ptca'
p919
I1559
sS'states'
p920
I687
sS'information'
p921
I577
sS'court'
p922
I764
sS'breaking'
p923
I1229
sS'chorea'
p924
I1447
sS'fu'
p925
I268
sS'mononucleosis'
p926
I789
sS'advice'
p927
I1579
sS'fungus'
p928
I1062
sS'blood'
p929
I23
sS'a'
p930
I99
sS'bloating'
p931
I1389
sS"don't"
p932
I1478
sS'urine'
p933
I125
sS'disabled'
p934
I852
sS'polymyalgia'
p935
I1310
sS'cardiovascular'
p936
I867
sS'arteries'
p937
I1369
sS'fissure'
p938
I648
sS'lateral'
p939
I877
sS'dysmenorrhea'
p940
I1222
sS'symptoms'
p941
I50
sS'absence'
p942
I1522
sS'might'
p943
I727
sS'syndromes'
p944
I672
sS'good'
p945
I1413
sS'return'
p946
I998
sS'food'
p947
I1231
sS'males'
p948
I1407
sS'prenatal'
p949
I980
sS'abrasion'
p950
I1016
sS'foot'
p951
I51
sS'erection'
p952
I924
sS'pregnant'
p953
I729
sS'zoster'
p954
I797
sS'dischange'
p955
I1354
sS'found'
p956
I281
sS'athletics'
p957
I1459
sS'lipoma'
p958
I1126
sS'heavy'
p959
I639
sS'reactions'
p960
I416
sS'mental'
p961
I1012
sS'weight'
p962
I863
sS'house'
p963
I169
sS'energy'
p964
I208
sS'papule'
p965
I436
sS'callus'
p966
I934
sS'insurance'
p967
I1211
sS'alcohol'
p968
I108
sS'wedlock'
p969
I859
sS'evaluation'
p970
I373
sS'pneumothorax'
p971
I630
sS'difficulty'
p972
I925
sS'reason'
p973
I758
sS'base'
p974
I915
sS'murmur'
p975
I607
sS'pus'
p976
I1516
sS'blister'
p977
I297
sS'scouts'
p978
I1405
sS'osteomyelitis'
p979
I1044
sS'glycolosated'
p980
I1133
sS'pyelonephritis'
p981
I401
sS'major'
p982
I676
sS'slipped'
p983
I1051
sS'kyphoscoliosis'
p984
I1042
sS'warts'
p985
I410
sS'temperature'
p986
I49
sS'divorce'
p987
I1260
sS"parkinson's"
p988
I1402
sS'fibrillation'
p989
I603
sS'passed'
p990
I1365
sS'pigmentation'
p991
I249
sS'headache'
p992
I132
sS'muscles'
p993
I1197
sS'pains'
p994
I18
sS'relationship'
p995
I723
sS'bowel'
p996
I312
sS'sensitization'
p997
I482
sS'retinal'
p998
I1545
sS'std'
p999
I611
sS'windburn'
p1000
I1332
sS'vocal'
p1001
I1128
sS'hyperlipidemia'
p1002
I540
sS'marriage'
p1003
I1263
sS'toe'
p1004
I57
sS'sty'
p1005
I1476
sS'fights'
p1006
I1193
sS'hemangioma'
p1007
I1125
sS'aged'
p1008
I1188
sS'organs'
p1009
I1237
sS'smallpox'
p1010
I798
sS'self'
p1011
I846
sS'onset'
p1012
I320
sS'internal'
p1013
I592
sS'lip'
p1014
I260
sS'stenosis'
p1015
I283
sS'brace'
p1016
I1372
sS'thoracic'
p1017
I896
sS'radioisotope'
p1018
I1291
sS'eruption'
p1019
I141
sS'allergy'
p1020
I632
sS'mace'
p1021
I701
sS'vns'
p1022
I1391
sS'toxemia'
p1023
I485
sS'deviations'
p1024
I1253
sS'dystrophy'
p1025
I889
sS'postmenopausal'
p1026
I1450
sS'tubes'
p1027
I1030
sS'stones'
p1028
I238
sS'disturbances'
p1029
I1256
sS'swelling'
p1030
I43
sS'malignant'
p1031
I1151
sS'excessive'
p1032
I258
sS'dilation'
p1033
I1143
sS'access'
p1034
I1129
sS'paranoid'
p1035
I686
sS'nervous'
p1036
I876
sS'failed'
p1037
I596
sS'dysfunctional'
p1038
I1335
sS'congestive'
p1039
I360
sS'hip'
p1040
I142
sS'cysts'
p1041
I705
sS'hiv'
p1042
I938
sS'cholera'
p1043
I1569
sS'biopsy'
p1044
I591
sS'breast'
p1045
I393
sS'during'
p1046
I96
sS"tourette's"
p1047
I898
sS'withdrawal'
p1048
I671
sS'enema'
p1049
I825
sS'bulky'
p1050
I777
sS'cryotherapy'
p1051
I820
sS'vulva'
p1052
I1487
sS'stump'
p1053
I707
sS'culture'
p1054
I509
sS'schizophrenia'
p1055
I689
sS'arc'
p1056
I1161
sS'arm'
p1057
I34
sS'baldness'
p1058
I1597
sS'thrombocytopenia'
p1059
I1348
sS'vitamins'
p1060
I1141
sS'conditions'
p1061
I1156
sS'unconscious'
p1062
I325
sS'bronchus'
p1063
I991
sS'attention'
p1064
I1108
sS'ulcerative'
p1065
I654
sS'centesis'
p1066
I806
sS'macular'
p1067
I1542
sS'both'
p1068
I105
sS'c'
p1069
I479
sS'prescription'
p1070
I123
sS'license'
p1071
I1467
sS'annual'
p1072
I711
sS'foreign'
p1073
I277
sS'distress'
p1074
I414
sS'drunk'
p1075
I386
sS'sepsis'
p1076
I1320
sS'others'
p1077
I854
sS'spotting'
p1078
I280
sS'esophagus'
p1079
I679
sS'monthly'
p1080
I910
sS'membranes'
p1081
I322
sS'due'
p1082
I1214
sS'dropping'
p1083
I1445
sS'ganglion'
p1084
I1307
sS'gas'
p1085
I15
sS'determination'
p1086
I1130
sS'liver'
p1087
I394
sS'pacemaker'
p1088
I979
sS'colonoscopy'
p1089
I595
sS'healthy'
p1090
I506
sS'behavior'
p1091
I1277
sS'cystinosis'
p1092
I534
sS'bruises'
p1093
I219
sS'hyperactivity'
p1094
I1248
sS'von'
p1095
I1349
sS'eczema'
p1096
I1414
sS'rib'
p1097
I950
sS'urethra'
p1098
I1364
sS'welts'
p1099
I550
sS'migraine'
p1100
I223
sS'rheumatism'
p1101
I932
sS'problems'
p1102
I148
sS'elevated'
p1103
I210
sS'prothrombin'
p1104
I1009
sS'benign'
p1105
I1122
sS'chickenpox'
p1106
I732
sS'leukemias'
p1107
I1384
sS'development'
p1108
I1055
sS'neuroses'
p1109
I1431
sS'fatty'
p1110
I1218
sS'overweight'
p1111
I1221
sS'osteoarthritis'
p1112
I1027
sS'recent'
p1113
I1296
sS'lower'
p1114
I28
sS'myeloma'
p1115
I1386
sS'person'
p1116
I1182
sS'entry'
p1117
I1371
sS'clearance'
p1118
I767
sS'prevention'
p1119
I175
sS'debridement'
p1120
I822
sS'acvd'
p1121
I868
sS'facial'
p1122
I237
sS'from'
p1123
I1394
sS'examinations'
p1124
I1578
sS'shape'
p1125
I776
sS'pancreatitis'
p1126
I719
sS'questions'
p1127
I172
sS'irritable'
p1128
I650
sS'contracture'
p1129
I1040
sS'arteritis'
p1130
I457
sS'injuries'
p1131
I710
sS'discipline'
p1132
I1278
sS'cut'
p1133
I821
sS'glomerulonephrosis'
p1134
I399
sS'serology'
p1135
I669
sS'furuncle'
p1136
I163
sS'admission'
p1137
I975
sS'jobst'
p1138
I1494
sS'parents'
p1139
I1011
sS'complaint'
p1140
I1410
sS'advocate'
p1141
I167
sS'inclues'
p1142
I352
sS'spine'
p1143
I943
sS'dermoid'
p1144
I1124
sS'immunization'
p1145
I962
sS'nipple'
p1146
I1395
sS'endomedtrium'
p1147
I1484
sS'eeg'
p1148
I594
sS'disorder'
p1149
I572
sS'anomalies'
p1150
I1429
sS'metabolic'
p1151
I530
sS'back'
p1152
I20
sS'economic'
p1153
I1297
sS'labyrinthitis'
p1154
I1518
sS'farsightedness'
p1155
I1565
sS'contacts'
p1156
I1435
sS'hiccoughs'
p1157
I658
sS'verbally'
p1158
I743
sS'scalp'
p1159
I708
sS'peg'
p1160
I968
sS'be'
p1161
I728
sS'patient'
p1162
I70
sS'nasal'
p1163
I507
sS'odor'
p1164
I443
sS'candidiasis'
p1165
I1065
sS'refused'
p1166
I1101
sS'ache'
p1167
I7
sS'ruq'
p1168
I229
sS'by'
p1169
I266
sS'vaccine'
p1170
I961
sS'fibula'
p1171
I803
sS'earlobe'
p1172
I1529
sS'gerd'
p1173
I1023
sS'virus'
p1174
I702
sS'paronychia'
p1175
I423
sS'unintentional'
p1176
I1581
sS'involving'
p1177
I1508
sS'postcoital'
p1178
I1586
sS'mouth'
p1179
I440
sS'trichomonas'
p1180
I754
sS'block'
p1181
I831
sS'pollution'
p1182
I731
sS'neoplasms'
p1183
I921
sS'dissatisfaction'
p1184
I1397
sS'mitochondrial'
p1185
I1532
sS'long'
p1186
I1224
sS'consultation'
p1187
I154
sS'infected'
p1188
I335
sS'potassium'
p1189
I668
sS'bursitis'
p1190
I1306
sS'injection'
p1191
I829
sS'pain'
p1192
I3
sS'skull'
p1193
I986
sS'up'
p1194
I101
sS'psychosis'
p1195
I688
sS'verruca'
p1196
I800
sS"bell's"
p1197
I879
sS'called'
p1198
I498
sS'associated'
p1199
I1155
sS'corrective'
p1200
I1488
sS'metal'
p1201
I694
sS'scarlet'
p1202
I1110
sS'kidney'
p1203
I199
sS'phantom'
p1204
I894
sS'income'
p1205
I1300
sS'degenerative'
p1206
I1038
sS'rubella'
p1207
I787
sS'rabies'
p1208
I793
sS'endocrine'
p1209
I528
sS'prosecution'
p1210
I1200
sS'lens'
p1211
I1554
sS'insect'
p1212
I263
sS'inguinal'
p1213
I126
sS'shunts'
p1214
I1076
sS'puncture'
p1215
I553
sS'tendinitis'
p1216
I1315
sS'transluminal'
p1217
I1557
sS'e'
p1218
I746
sS'age'
p1219
I275
sS'required'
p1220
I392
sS'walked'
p1221
I1104
sS'nocturia'
p1222
I1427
sS'dot'
p1223
I1468
sS'uterus'
p1224
I1207
sS'amyloidosis'
p1225
I531
sS'intentional'
p1226
I638
sS'code'
p1227
I773
sS'results'
p1228
I110
sS'hypothyroidism'
p1229
I1328
sS'hepatitis'
p1230
I733
sS'menses'
p1231
I726
sS'preadmission'
p1232
I1096
sS'adjustment'
p1233
I1196
sS'illegible'
p1234
I1504
sS'epigastric'
p1235
I201
sS'young'
p1236
I487
sS'radiological'
p1237
I1116
sS'neuroma'
p1238
I887
sS'artery'
p1239
I448
sS'myelopathy'
p1240
I1036
sS'shock'
p1241
I329
sS'tenderness'
p1242
I318
sS'obesity'
p1243
I1220
sS'urolithiasis'
p1244
I405
sS'hardening'
p1245
I1368
sS'bleeding'
p1246
I67
sS'abortion'
p1247
I276
sS'sensation'
p1248
I1446
sS'insertion'
p1249
I920
sS'depression'
p1250
I684
sS'sweats'
p1251
I586
sS'cell'
p1252
I510
sS'bruxism'
p1253
I1250
sS'twins'
p1254
I486
sS'exercise'
p1255
I338
sS'body'
p1256
I273
sS'leg'
p1257
I40
sS'prescribe'
p1258
I122
sS'catheterization'
p1259
I927
sS'separation'
p1260
I1262
sS'bunions'
p1261
I1035
sS'septum'
p1262
I627
sS'referable'
p1263
I354
sS'products'
p1264
I490
sS'insulin'
p1265
I827
sS'opinion'
p1266
I179
sS'peritoneum'
p1267
I643
sS'wic'
p1268
I766
sS'duct'
p1269
I1524
sS'trachea'
p1270
I994
sS'motor'
p1271
I91
sS'limb'
p1272
I895
sS'dermatitis'
p1273
I433
sS'leukorrhea'
p1274
I367
sS'certificate'
p1275
I489
sS'examination'
p1276
I209
sS'vehicle'
p1277
I92
sS'secretions'
p1278
I1184
sS'about'
p1279
I77
sS'infection'
p1280
I102
sS'bodily'
p1281
I1179
sS'sore'
p1282
I432
sS'insufficiency'
p1283
I460
sS'transient'
p1284
I1254
sS'penis'
p1285
I642
sS'myasthenia'
p1286
I890
sS'halitosis'
p1287
I657
sS'tunnel'
p1288
I882
sS'urethral'
p1289
I1083
sS'column'
p1290
I781
sS'smear'
p1291
I1511
sS'meet'
p1292
I181
sS'rehabilitation'
p1293
I157
sS'control'
p1294
I319
sS'violence'
p1295
I241
sS'tap'
p1296
I811
sS'pelvic'
p1297
I313
sS'high'
p1298
I26
sS'tag'
p1299
I936
sS'hyperemesis'
p1300
I472
sS'bones'
p1301
I984
sS'pelvis'
p1302
I1362
sS'rape'
p1303
I1119
sS'syndrome'
p1304
I61
sS"alzheimer's"
p1305
I878
sS'endoscopy'
p1306
I189
sS'roughness'
p1307
I1421
sS'mumps'
p1308
I734
sS'animal'
p1309
I349
sS'hormones'
p1310
I1136
sS'venous'
p1311
I459
sS'maternal'
p1312
I274
sS'peeling'
p1313
I1419
sS'theumatica'
p1314
I1311
sS'carbuncle'
p1315
I162
sS'fluid'
p1316
I140
sS'discomfort'
p1317
I4
sS'abuse'
p1318
I233
sS'fatigue'
p1319
I339
sS'marrow'
p1320
I1549
sS'prostate'
p1321
I1223
sS'acuminatum'
p1322
I1602
sS'septic'
p1323
I1029
sS'daycare'
p1324
I1453
sS'healthcare'
p1325
I761
sS'addiction'
p1326
I1080
sS'including'
p1327
I1268
sS'motorcycle'
p1328
I95
sS'temporal'
p1329
I456
sS'labor'
p1330
I137
sS'mellitus'
p1331
I706
sS'covered'
p1332
I1358
sS'imbalance'
p1333
I215
sS'auto'
p1334
I93
sS'material'
p1335
I1267
sS'functional'
p1336
I681
sS'snake'
p1337
I382
sS'impaired'
p1338
I542
sS'inoculations'
p1339
I959
sS'hematochromatosis'
p1340
I537
sS'chronic'
p1341
I385
sS'gallstones'
p1342
I346
sS'unpredictable'
p1343
I1428
sS'transmitted'
p1344
I557
sS'bills'
p1345
I1299
sS'glasses'
p1346
I1351
sS'mitral'
p1347
I361
sS'ankles'
p1348
I211
sS'bump'
p1349
I1105
sS'pleurisy'
p1350
I629
sS'related'
p1351
I1159
sS'deficiency'
p1352
I205
sS'frequency'
p1353
I344
sS'irritation'
p1354
I517
sS'lesion'
p1355
I247
sS'sexual'
p1356
I680
sS'special'
p1357
I1073
sS'out'
p1358
I27
sS'semen'
p1359
I1406
sS'cerebral'
p1360
I288
sS'valve'
p1361
I279
sS'menorrhagia'
p1362
I1187
sS'situational'
p1363
I1255
sS'sebaceous'
p1364
I428
sS'obsessive'
p1365
I1433
sS'ecg'
p1366
I1438
sS'angiography'
p1367
I1286
sS'thrush'
p1368
I1070
sS'ect'
p1369
I824
sS'x'
p1370
I768
sS'organic'
p1371
I463
sS'g'
p1372
I967
sS'scars'
p1373
I1245
sS'wrist'
p1374
I59
sS"krukenberg's"
p1375
I1541
sS'chills'
p1376
I226
sS'scanning'
p1377
I1292
sS'exostosis'
p1378
I1041
sS'aphakia'
p1379
I1537
sS'system'
p1380
I204
sS'unspecified'
p1381
I13
sS'attack'
p1382
I870
sS'ankle'
p1383
I79
sS'chemotherapy'
p1384
I1150
sS'painful'
p1385
I191
sS'scans'
p1386
I357
sS'mandibular'
p1387
I1324
sS'stomach'
p1388
I114
sS'goiter'
p1389
I1326
sS'alopecia'
p1390
I1596
sS'chemicals'
p1391
I697
sS'manipulation'
p1392
I1378
sS'pneuomonitis'
p1393
I569
sS'rsv'
p1394
I795
sS'epidermal'
p1395
I417
sS'ureteral'
p1396
I402
sS'isolation'
p1397
I1482
sS'aspiration'
p1398
I1548
sS'infectious'
p1399
I527
sS'purpura'
p1400
I1346
sS'sed'
p1401
I666
sS'flashes'
p1402
I1374
sS'referral'
p1403
I173
sS'esotropia'
p1404
I1539
sS'psychoses'
p1405
I278
sS'activites'
p1406
I1458
sS'have'
p1407
I842
sS"hodgkin's"
p1408
I1382
sS'throat'
p1409
I563
sS'dementia'
p1410
I674
sS'utero'
p1411
I471
sS'femoral'
p1412
I1058
sS'radiculopathy'
p1413
I1313
sS'relatives'
p1414
I1195
sS'calculus'
p1415
I403
sS'digestive'
p1416
I409
sS'device'
p1417
I784
sS'hyperthyroidism'
p1418
I1327
sS'disease'
p1419
I35
sS'face'
p1420
I72
sS'suture'
p1421
I106
sS'cholecystitis'
p1422
I716
sS'planning'
p1423
I1576
sS'litigation'
p1424
I1202
sS'pterygium'
p1425
I1544
sS'jaw'
p1426
I985
sS'neurogenic'
p1427
I400
sS'rash'
p1428
I64
sS'maggots'
p1429
I1172
sS'strabismus'
p1430
I1547
sS'beat'
p1431
I242
sS'arrhythmia'
p1432
I358
sS'tbi'
p1433
I136
sS'joint'
p1434
I413
sS'malaise'
p1435
I309
sS'spur'
p1436
I738
sS'angiogram'
p1437
I1208
sS'acquired'
p1438
I1157
sS'coli'
p1439
I747
sS'contusion'
p1440
I1014
sS'luq'
p1441
I227
sS'nonarticular'
p1442
I1305
sS'state'
p1443
I740
sS'wetting'
p1444
I941
sS'tens'
p1445
I836
sS'progress'
p1446
I906
sS'earplugs'
p1447
I1492
sS'kidneys'
p1448
I1366
sS'pants'
p1449
I847
sS'vasomotor'
p1450
I1373
sS'exam'
p1451
I159
sS'job'
p1452
I1396
sS'drug'
p1453
I36
sS'strains'
p1454
I518
sS'admit'
p1455
I1094
sS'nevus'
p1456
I1127
sS'placebo'
p1457
I121
sS'nicorette'
p1458
I1081
sS'inflammatory'
p1459
I1469
sS'cbc'
p1460
I1008
sS'blepharitis'
p1461
I1470
sS'cx'
p1462
I305
sS'pulmonary'
p1463
I198
sS'electrocardiogram'
p1464
I1439
sS'ct'
p1465
I561
sS'cavities'
p1466
I1415
sS'discrimination'
p1467
I1477
sS'sars'
p1468
I631
sS'whiteheads'
p1469
I1230
sS'iritis'
p1470
I1473
sS'chlamydia'
p1471
I1002
sS'league'
p1472
I1463
sS'lupron'
p1473
I1137
sS'cor'
p1474
I605
sS'sclerotherapy'
p1475
I834
sS'general'
p1476
I48
sS'laser'
p1477
I1553
sS'pneumocystis'
p1478
I750
sS'groin'
p1479
I873
sS'site'
p1480
I300
sS'draining'
p1481
I567
sS'excessively'
p1482
I1186
sS'fugax'
p1483
I1535
sS'situ'
p1484
I1153
sS'tattoo'
p1485
I1381
sS'kyphosis'
p1486
I1043
sS'balloon'
p1487
I1550
sS'radiation'
p1488
I1436
sS'coronary'
p1489
I615
sS'adverse'
p1490
I351
sS'fallopian'
p1491
I1485
sS'infarction'
p1492
I872
sS'party'
p1493
I759
sS'ophthalmologic'
p1494
I1563
sS'moniliasis'
p1495
I1068
sS'effect'
p1496
I89
sS'dust'
p1497
I1163
sS'sunburn'
p1498
I1331
sS'diabetes'
p1499
I316
sS'lupus'
p1500
I369
sS'center'
p1501
I1454
sS'neuropathy'
p1502
I893
sS'polyp'
p1503
I922
sS'well'
p1504
I298
sS'muscle'
p1505
I566
sS'fetal'
p1506
I192
sS'spastic'
p1507
I653
sS'gastritis'
p1508
I1022
sS'diarrhea'
p1509
I74
sS'duodenal'
p1510
I1019
sS'spells'
p1511
I145
sS'hydrotherapy'
p1512
I1589
sS'arteriosclerosis'
p1513
I588
sS'density'
p1514
I1287
sS'synctival'
p1515
I794
sS'absorption'
p1516
I535
sS'deposits'
p1517
I1219
sS'ectopic'
p1518
I469
sS'arrest'
p1519
I524
sS'add'
p1520
I1247
sS'adoption'
p1521
I763
sS'postpartum'
p1522
I1107
sS'tests'
p1523
I200
sS'sick'
p1524
I310
sS'iugr'
p1525
I474
sS'knot'
p1526
I1106
sS'tick'
p1527
I265
sS'membrane'
p1528
I1521
sS'placenta'
p1529
I475
sS'loss'
p1530
I408
sS'like'
p1531
I1158
sS'sprain'
p1532
I952
sS'therapeutic'
p1533
I783
sS'birthmark'
p1534
I250
sS'hair'
p1535
I1448
sS'growth'
p1536
I374
sS"paget's"
p1537
I1046
sS'employment'
p1538
I995
sS'rectocele'
p1539
I1341
sS'lead'
p1540
I700
sS'neurosis'
p1541
I1238
sS'inflammation'
p1542
I845
sS'tmj'
p1543
I1417
sS'arteriosclerotic'
p1544
I614
sS'locate'
p1545
I166
sS'noise'
p1546
I1148
sS'schedule'
p1547
I176
sS'pressure'
p1548
I103
sS'simplex'
p1549
I788
sS'preventative'
p1550
I713
sS'sister'
p1551
I1191
sS'getting'
p1552
I907
sS'ashd'
p1553
I869
sS'dependence'
p1554
I901
sS'preemployment'
p1555
I996
sS'dependency'
p1556
I1082
sS'insufficient'
p1557
I576
sS'contractions'
p1558
I245
sS'commitment'
p1559
I1095
sS'ultrasound'
p1560
I812
sS'lung'
p1561
I993
sS'female'
p1562
I388
sS'adolescent'
p1563
I434
sS'housing'
p1564
I857
sS'spots'
p1565
I256
sS'abrasions'
p1566
I218
sS'polycythemia'
p1567
I1387
sS'unresponsive'
p1568
I282
sS'function'
p1569
I390
sS'erythematosus'
p1570
I370
sS'vasculitis'
p1571
I458
sS'hs'
p1572
I1345
sS'corneal'
p1573
I1015
sS'volume'
p1574
I1206
sS'echocardiogram'
p1575
I807
sS'plague'
p1576
I752
sS'gain'
p1577
I1215
sS'hl'
p1578
I538
sS'rectum'
p1579
I269
sS'ear'
p1580
I246
sS'shunt'
p1581
I188
sS'count'
p1582
I1006
sS'soreness'
p1583
I6
sS'problem'
p1584
I131
sS'gynecological'
p1585
I1507
sS'menstruation'
p1586
I554
sS'nurser'
p1587
I1456
sS'pid'
p1588
I810
sS'periods'
p1589
I770
sS'education'
p1590
I170
sS'autism'
p1591
I682
sS'blackheads'
p1592
I1227
sS'oak'
p1593
I426
sS'other'
p1594
I2
sS'ragweed'
p1595
I1165
sS"barrett's"
p1596
I1018
sS'hematuria'
p1597
I285
sS'repeat'
p1598
I1509
sS'kinds'
p1599
I117
sS'traumatic'
p1600
I84
sS'antepartum'
p1601
I982
sS'friends'
p1602
I1479
sS'ovary'
p1603
I1090
sS'exposure'
p1604
I332
sS'contraceptive'
p1605
I1423
sS'peptic'
p1606
I1024
sS'infarct'
p1607
I450
sS'oral'
p1608
I120
sS"morton's"
p1609
I886
sS'vulvovaginitis'
p1610
I1502
sS'estriol'
p1611
I1203
ssS'oov_token'
p1612
NsS'char_level'
p1613
I00
sS'word_counts'
p1614
ccollections
OrderedDict
p1615
((lp1616
(lp1617
g664
aI83848
aa(lp1618
g508
aI1021
aa(lp1619
g1192
aI10957
aa(lp1620
g1167
aI5367
aa(lp1621
g1583
aI5423
aa(lp1622
g1317
aI7423
aa(lp1623
g791
aI607
aa(lp1624
g1152
aI1819
aa(lp1625
g1257
aI927
aa(lp1626
g1388
aI361
aa(lp1627
g591
aI5877
aa(lp1628
g259
aI4485
aa(lp1629
g677
aI2637
aa(lp1630
g313
aI2631
aa(lp1631
g817
aI254
aa(lp1632
g1594
aI20225
aa(lp1633
g726
aI295
aa(lp1634
g1348
aI189
aa(lp1635
g1030
aI836
aa(lp1636
g1068
aI378
aa(lp1637
g171
aI195
aa(lp1638
g676
aI189
aa(lp1639
g160
aI195
aa(lp1640
g231
aI189
aa(lp1641
g514
aI189
aa(lp1642
g795
aI279
aa(lp1643
g448
aI383
aa(lp1644
g533
aI4920
aa(lp1645
g723
aI1942
aa(lp1646
g1085
aI1898
aa(lp1647
g994
aI1843
aa(lp1648
g745
aI1896
aa(lp1649
g441
aI1872
aa(lp1650
g929
aI1280
aa(lp1651
g279
aI1053
aa(lp1652
g933
aI338
aa(lp1653
g1597
aI124
aa(lp1654
g951
aI740
aa(lp1655
g1004
aI659
aa(lp1656
g1078
aI128
aa(lp1657
g1246
aI551
aa(lp1658
g1046
aI428
aa(lp1659
g257
aI904
aa(lp1660
g1383
aI502
aa(lp1661
g324
aI547
aa(lp1662
g1271
aI430
aa(lp1663
g1277
aI430
aa(lp1664
g249
aI1417
aa(lp1665
g1334
aI430
aa(lp1666
g481
aI430
aa(lp1667
g1328
aI430
aa(lp1668
g103
aI784
aa(lp1669
g1298
aI1172
aa(lp1670
g986
aI765
aa(lp1671
g862
aI82
aa(lp1672
g1419
aI991
aa(lp1673
g209
aI41
aa(lp1674
g1015
aI125
aa(lp1675
g1360
aI123
aa(lp1676
g1513
aI44
aa(lp1677
g750
aI41
aa(lp1678
g489
aI41
aa(lp1679
g397
aI41
aa(lp1680
g71
aI592
aa(lp1681
g310
aI296
aa(lp1682
g22
aI296
aa(lp1683
g1358
aI1146
aa(lp1684
g1511
aI296
aa(lp1685
g721
aI296
aa(lp1686
g1057
aI995
aa(lp1687
g367
aI484
aa(lp1688
g1420
aI517
aa(lp1689
g1381
aI2015
aa(lp1690
g901
aI1563
aa(lp1691
g348
aI527
aa(lp1692
g787
aI314
aa(lp1693
g1304
aI626
aa(lp1694
g385
aI628
aa(lp1695
g315
aI320
aa(lp1696
g914
aI416
aa(lp1697
g1600
aI461
aa(lp1698
g520
aI356
aa(lp1699
g1433
aI314
aa(lp1700
g1476
aI767
aa(lp1701
g125
aI638
aa(lp1702
g941
aI759
aa(lp1703
g606
aI660
aa(lp1704
g847
aI946
aa(lp1705
g314
aI84
aa(lp1706
g903
aI70
aa(lp1707
g1542
aI21
aa(lp1708
g101
aI66
aa(lp1709
g1242
aI104
aa(lp1710
g1443
aI25
aa(lp1711
g767
aI2031
aa(lp1712
g211
aI61
aa(lp1713
g531
aI260
aa(lp1714
g749
aI35
aa(lp1715
g325
aI86
aa(lp1716
g1169
aI139
aa(lp1717
g113
aI25
aa(lp1718
g956
aI127
aa(lp1719
g766
aI175
aa(lp1720
g390
aI25
aa(lp1721
g1158
aI25
aa(lp1722
g1568
aI127
aa(lp1723
g292
aI1107
aa(lp1724
g239
aI735
aa(lp1725
g1374
aI630
aa(lp1726
g1100
aI175
aa(lp1727
g992
aI322
aa(lp1728
g839
aI32
aa(lp1729
g742
aI32
aa(lp1730
g124
aI408
aa(lp1731
g298
aI827
aa(lp1732
g1079
aI32
aa(lp1733
g607
aI13
aa(lp1734
g1596
aI13
aa(lp1735
g1510
aI13
aa(lp1736
g208
aI124
aa(lp1737
g634
aI13
aa(lp1738
g342
aI13
aa(lp1739
g1508
aI13
aa(lp1740
g1173
aI13
aa(lp1741
g1606
aI13
aa(lp1742
g114
aI13
aa(lp1743
g1509
aI510
aa(lp1744
g879
aI510
aa(lp1745
g737
aI539
aa(lp1746
g224
aI510
aa(lp1747
g491
aI18
aa(lp1748
g544
aI18
aa(lp1749
g651
aI18
aa(lp1750
g1589
aI24
aa(lp1751
g542
aI18
aa(lp1752
g1040
aI299
aa(lp1753
g774
aI937
aa(lp1754
g955
aI3
aa(lp1755
g1123
aI2
aa(lp1756
g1146
aI2
aa(lp1757
g1045
aI78
aa(lp1758
g413
aI1241
aa(lp1759
g1428
aI603
aa(lp1760
g1019
aI301
aa(lp1761
g559
aI55
aa(lp1762
g597
aI55
aa(lp1763
g28
aI51
aa(lp1764
g1099
aI51
aa(lp1765
g771
aI125
aa(lp1766
g882
aI55
aa(lp1767
g788
aI356
aa(lp1768
g1215
aI50
aa(lp1769
g688
aI35
aa(lp1770
g1114
aI1134
aa(lp1771
g375
aI625
aa(lp1772
g570
aI13
aa(lp1773
g283
aI267
aa(lp1774
g1316
aI302
aa(lp1775
g595
aI84
aa(lp1776
g1333
aI185
aa(lp1777
g416
aI156
aa(lp1778
g391
aI81
aa(lp1779
g1297
aI107
aa(lp1780
g762
aI231
aa(lp1781
g353
aI432
aa(lp1782
g436
aI1031
aa(lp1783
g134
aI814
aa(lp1784
g522
aI814
aa(lp1785
g207
aI420
aa(lp1786
g821
aI175
aa(lp1787
g1479
aI20
aa(lp1788
g1213
aI337
aa(lp1789
g330
aI474
aa(lp1790
g512
aI948
aa(lp1791
g562
aI305
aa(lp1792
g300
aI484
aa(lp1793
g410
aI305
aa(lp1794
g1102
aI294
aa(lp1795
g1506
aI239
aa(lp1796
g875
aI158
aa(lp1797
g620
aI96
aa(lp1798
g685
aI96
aa(lp1799
g1255
aI96
aa(lp1800
g366
aI105
aa(lp1801
g1319
aI96
aa(lp1802
g829
aI96
aa(lp1803
g964
aI192
aa(lp1804
g874
aI96
aa(lp1805
g534
aI97
aa(lp1806
g84
aI96
aa(lp1807
g162
aI327
aa(lp1808
g1523
aI209
aa(lp1809
g541
aI436
aa(lp1810
g241
aI103
aa(lp1811
g392
aI716
aa(lp1812
g1103
aI190
aa(lp1813
g213
aI439
aa(lp1814
g1294
aI104
aa(lp1815
g785
aI103
aa(lp1816
g1355
aI144
aa(lp1817
g977
aI117
aa(lp1818
g965
aI70
aa(lp1819
g373
aI70
aa(lp1820
g180
aI70
aa(lp1821
g1282
aI71
aa(lp1822
g250
aI114
aa(lp1823
g175
aI367
aa(lp1824
g692
aI114
aa(lp1825
g1462
aI114
aa(lp1826
g227
aI156
aa(lp1827
g825
aI114
aa(lp1828
g116
aI114
aa(lp1829
g592
aI114
aa(lp1830
g1435
aI114
aa(lp1831
g1504
aI116
aa(lp1832
g600
aI333
aa(lp1833
g605
aI115
aa(lp1834
g1524
aI114
aa(lp1835
g135
aI115
aa(lp1836
g1505
aI47
aa(lp1837
g399
aI444
aa(lp1838
g463
aI85
aa(lp1839
g423
aI85
aa(lp1840
g579
aI85
aa(lp1841
g1274
aI85
aa(lp1842
g1032
aI143
aa(lp1843
g1385
aI243
aa(lp1844
g123
aI328
aa(lp1845
g779
aI288
aa(lp1846
g1226
aI38
aa(lp1847
g1011
aI21
aa(lp1848
g589
aI7
aa(lp1849
g1318
aI158
aa(lp1850
g548
aI7
aa(lp1851
g837
aI1246
aa(lp1852
g74
aI7
aa(lp1853
g753
aI51
aa(lp1854
g1249
aI18
aa(lp1855
g189
aI44
aa(lp1856
g400
aI24
aa(lp1857
g294
aI24
aa(lp1858
g1372
aI15
aa(lp1859
g1160
aI15
aa(lp1860
g889
aI15
aa(lp1861
g440
aI15
aa(lp1862
g930
aI416
aa(lp1863
g789
aI15
aa(lp1864
g602
aI15
aa(lp1865
g408
aI292
aa(lp1866
g59
aI46
aa(lp1867
g427
aI346
aa(lp1868
g622
aI46
aa(lp1869
g1548
aI387
aa(lp1870
g243
aI46
aa(lp1871
g488
aI51
aa(lp1872
g1309
aI89
aa(lp1873
g1337
aI81
aa(lp1874
g230
aI89
aa(lp1875
g486
aI221
aa(lp1876
g365
aI183
aa(lp1877
g1566
aI183
aa(lp1878
g1093
aI183
aa(lp1879
g1280
aI395
aa(lp1880
g1122
aI155
aa(lp1881
g897
aI252
aa(lp1882
g1580
aI145
aa(lp1883
g119
aI140
aa(lp1884
g1014
aI141
aa(lp1885
g744
aI157
aa(lp1886
g429
aI167
aa(lp1887
g720
aI40
aa(lp1888
g304
aI40
aa(lp1889
g1341
aI80
aa(lp1890
g615
aI40
aa(lp1891
g1463
aI214
aa(lp1892
g500
aI40
aa(lp1893
g1163
aI57
aa(lp1894
g1262
aI40
aa(lp1895
g434
aI40
aa(lp1896
g1350
aI40
aa(lp1897
g971
aI40
aa(lp1898
g369
aI202
aa(lp1899
g1468
aI40
aa(lp1900
g44
aI377
aa(lp1901
g379
aI1824
aa(lp1902
g1599
aI356
aa(lp1903
g404
aI365
aa(lp1904
g386
aI1065
aa(lp1905
g1453
aI958
aa(lp1906
g461
aI356
aa(lp1907
g337
aI859
aa(lp1908
g26
aI460
aa(lp1909
g258
aI356
aa(lp1910
g1608
aI356
aa(lp1911
g1457
aI356
aa(lp1912
g1496
aI436
aa(lp1913
g1258
aI356
aa(lp1914
g147
aI712
aa(lp1915
g1070
aI356
aa(lp1916
g197
aI712
aa(lp1917
g86
aI139
aa(lp1918
g1062
aI102
aa(lp1919
g653
aI102
aa(lp1920
g658
aI102
aa(lp1921
g52
aI102
aa(lp1922
g1241
aI102
aa(lp1923
g883
aI102
aa(lp1924
g804
aI237
aa(lp1925
g27
aI237
aa(lp1926
g529
aI118
aa(lp1927
g18
aI118
aa(lp1928
g81
aI59
aa(lp1929
g1530
aI74
aa(lp1930
g438
aI70
aa(lp1931
g610
aI59
aa(lp1932
g1490
aI89
aa(lp1933
g968
aI373
aa(lp1934
g743
aI119
aa(lp1935
g793
aI160
aa(lp1936
g1075
aI80
aa(lp1937
g1142
aI89
aa(lp1938
g471
aI27
aa(lp1939
g553
aI27
aa(lp1940
g678
aI86
aa(lp1941
g1231
aI27
aa(lp1942
g1586
aI49
aa(lp1943
g943
aI27
aa(lp1944
g1161
aI27
aa(lp1945
g953
aI27
aa(lp1946
g816
aI27
aa(lp1947
g672
aI54
aa(lp1948
g318
aI28
aa(lp1949
g1434
aI72
aa(lp1950
g105
aI39
aa(lp1951
g1112
aI13
aa(lp1952
g1101
aI17
aa(lp1953
g352
aI13
aa(lp1954
g1323
aI13
aa(lp1955
g415
aI56
aa(lp1956
g322
aI83
aa(lp1957
g820
aI31
aa(lp1958
g722
aI31
aa(lp1959
g1604
aI99
aa(lp1960
g287
aI31
aa(lp1961
g204
aI31
aa(lp1962
g1264
aI62
aa(lp1963
g959
aI38
aa(lp1964
g1201
aI31
aa(lp1965
g887
aI31
aa(lp1966
g90
aI31
aa(lp1967
g1391
aI31
aa(lp1968
g263
aI31
aa(lp1969
g60
aI31
aa(lp1970
g1540
aI31
aa(lp1971
g1021
aI31
aa(lp1972
g581
aI202
aa(lp1973
g528
aI48
aa(lp1974
g363
aI48
aa(lp1975
g54
aI82
aa(lp1976
g295
aI144
aa(lp1977
g991
aI144
aa(lp1978
g1534
aI144
aa(lp1979
g442
aI144
aa(lp1980
g193
aI144
aa(lp1981
g23
aI144
aa(lp1982
g518
aI144
aa(lp1983
g493
aI144
aa(lp1984
g1565
aI144
aa(lp1985
g1376
aI171
aa(lp1986
g1073
aI131
aa(lp1987
g1256
aI132
aa(lp1988
g609
aI116
aa(lp1989
g1106
aI26
aa(lp1990
g1399
aI52
aa(lp1991
g1230
aI26
aa(lp1992
g687
aI49
aa(lp1993
g1308
aI26
aa(lp1994
g585
aI3
aa(lp1995
g812
aI150
aa(lp1996
g255
aI3
aa(lp1997
g200
aI590
aa(lp1998
g92
aI513
aa(lp1999
g1293
aI255
aa(lp2000
g1545
aI251
aa(lp2001
g1141
aI251
aa(lp2002
g1187
aI261
aa(lp2003
g48
aI252
aa(lp2004
g1162
aI537
aa(lp2005
g575
aI251
aa(lp2006
g963
aI251
aa(lp2007
g1590
aI251
aa(lp2008
g120
aI251
aa(lp2009
g1584
aI325
aa(lp2010
g1127
aI251
aa(lp2011
g1279
aI508
aa(lp2012
g850
aI503
aa(lp2013
g1403
aI251
aa(lp2014
g185
aI251
aa(lp2015
g1119
aI251
aa(lp2016
g1547
aI251
aa(lp2017
g58
aI251
aa(lp2018
g41
aI251
aa(lp2019
g1266
aI251
aa(lp2020
g913
aI251
aa(lp2021
g1292
aI251
aa(lp2022
g706
aI502
aa(lp2023
g867
aI251
aa(lp2024
g565
aI251
aa(lp2025
g800
aI251
aa(lp2026
g515
aI251
aa(lp2027
g327
aI22
aa(lp2028
g1533
aI23
aa(lp2029
g648
aI22
aa(lp2030
g855
aI22
aa(lp2031
g1417
aI23
aa(lp2032
g624
aI22
aa(lp2033
g915
aI22
aa(lp2034
g1051
aI22
aa(lp2035
g1133
aI22
aa(lp2036
g764
aI26
aa(lp2037
g1120
aI22
aa(lp2038
g112
aI22
aa(lp2039
g1369
aI22
aa(lp2040
g1049
aI22
aa(lp2041
g138
aI22
aa(lp2042
g198
aI23
aa(lp2043
g1265
aI22
aa(lp2044
g649
aI22
aa(lp2045
g1191
aI22
aa(lp2046
g354
aI22
aa(lp2047
g1181
aI22
aa(lp2048
g556
aI22
aa(lp2049
g187
aI22
aa(lp2050
g1475
aI22
aa(lp2051
g632
aI22
aa(lp2052
g1445
aI22
aa(lp2053
g66
aI22
aa(lp2054
g846
aI22
aa(lp2055
g734
aI41
aa(lp2056
g564
aI172
aa(lp2057
g1153
aI4
aa(lp2058
g667
aI96
aa(lp2059
g707
aI4
aa(lp2060
g1345
aI4
aa(lp2061
g159
aI44
aa(lp2062
g577
aI6
aa(lp2063
g1205
aI4
aa(lp2064
g190
aI14
aa(lp2065
g40
aI17
aa(lp2066
g1481
aI47
aa(lp2067
g1188
aI97
aa(lp2068
g1315
aI252
aa(lp2069
g1136
aI252
aa(lp2070
g173
aI252
aa(lp2071
g906
aI252
aa(lp2072
g281
aI317
aa(lp2073
g772
aI76
aa(lp2074
g1557
aI46
aa(lp2075
g921
aI46
aa(lp2076
g1263
aI87
aa(lp2077
g1416
aI74
aa(lp2078
g1380
aI197
aa(lp2079
g682
aI36
aa(lp2080
g1235
aI205
aa(lp2081
g1074
aI72
aa(lp2082
g118
aI68
aa(lp2083
g1287
aI36
aa(lp2084
g1157
aI36
aa(lp2085
g293
aI79
aa(lp2086
g76
aI65
aa(lp2087
g485
aI36
aa(lp2088
g802
aI36
aa(lp2089
g1179
aI70
aa(lp2090
g336
aI4
aa(lp2091
g871
aI85
aa(lp2092
g798
aI4
aa(lp2093
g1449
aI21
aa(lp2094
g900
aI4
aa(lp2095
g165
aI4
aa(lp2096
g1228
aI368
aa(lp2097
g1148
aI43
aa(lp2098
g107
aI66
aa(lp2099
g1386
aI86
aa(lp2100
g1569
aI79
aa(lp2101
g1089
aI43
aa(lp2102
g1465
aI48
aa(lp2103
g1037
aI43
aa(lp2104
g150
aI56
aa(lp2105
g566
aI45
aa(lp2106
g612
aI48
aa(lp2107
g1044
aI44
aa(lp2108
g970
aI84
aa(lp2109
g532
aI53
aa(lp2110
g759
aI43
aa(lp2111
g426
aI10
aa(lp2112
g158
aI10
aa(lp2113
g1371
aI66
aa(lp2114
g1405
aI130
aa(lp2115
g700
aI38
aa(lp2116
g1048
aI33
aa(lp2117
g944
aI33
aa(lp2118
g467
aI33
aa(lp2119
g1410
aI33
aa(lp2120
g604
aI249
aa(lp2121
g246
aI88
aa(lp2122
g763
aI62
aa(lp2123
g730
aI142
aa(lp2124
g540
aI21
aa(lp2125
g966
aI17
aa(lp2126
g183
aI17
aa(lp2127
g1041
aI30
aa(lp2128
g459
aI368
aa(lp2129
g1159
aI29
aa(lp2130
g1536
aI84
aa(lp2131
g1299
aI17
aa(lp2132
g264
aI184
aa(lp2133
g1281
aI7
aa(lp2134
g754
aI7
aa(lp2135
g152
aI7
aa(lp2136
g1116
aI7
aa(lp2137
g537
aI7
aa(lp2138
g1278
aI7
aa(lp2139
g1203
aI214
aa(lp2140
g496
aI17
aa(lp2141
g49
aI6
aa(lp2142
g13
aI12
aa(lp2143
g1295
aI150
aa(lp2144
g1431
aI150
aa(lp2145
g1194
aI396
aa(lp2146
g362
aI150
aa(lp2147
g216
aI150
aa(lp2148
g115
aI80
aa(lp2149
g1303
aI9
aa(lp2150
g1356
aI32
aa(lp2151
g603
aI9
aa(lp2152
g1421
aI378
aa(lp2153
g504
aI114
aa(lp2154
g1519
aI53
aa(lp2155
g1227
aI24
aa(lp2156
g42
aI24
aa(lp2157
g182
aI75
aa(lp2158
g638
aI7
aa(lp2159
g1554
aI19
aa(lp2160
g1209
aI52
aa(lp2161
g572
aI52
aa(lp2162
g1151
aI52
aa(lp2163
g810
aI53
aa(lp2164
g1225
aI52
aa(lp2165
g627
aI52
aa(lp2166
g268
aI52
aa(lp2167
g1352
aI197
aa(lp2168
g1092
aI52
aa(lp2169
g418
aI60
aa(lp2170
g1516
aI52
aa(lp2171
g728
aI52
aa(lp2172
g1562
aI80
aa(lp2173
g1340
aI52
aa(lp2174
g1578
aI52
aa(lp2175
g24
aI52
aa(lp2176
g1002
aI52
aa(lp2177
g663
aI52
aa(lp2178
g1338
aI52
aa(lp2179
g499
aI52
aa(lp2180
g174
aI102
aa(lp2181
g328
aI52
aa(lp2182
g872
aI61
aa(lp2183
g154
aI56
aa(lp2184
g811
aI52
aa(lp2185
g580
aI52
aa(lp2186
g660
aI66
aa(lp2187
g630
aI52
aa(lp2188
g1441
aI169
aa(lp2189
g220
aI181
aa(lp2190
g662
aI169
aa(lp2191
g1168
aI169
aa(lp2192
g881
aI45
aa(lp2193
g326
aI45
aa(lp2194
g551
aI15
aa(lp2195
g221
aI84
aa(lp2196
g64
aI118
aa(lp2197
g1276
aI191
aa(lp2198
g232
aI61
aa(lp2199
g106
aI29
aa(lp2200
g1013
aI44
aa(lp2201
g1131
aI29
aa(lp2202
g1026
aI1
aa(lp2203
g557
aI123
aa(lp2204
g469
aI272
aa(lp2205
g713
aI246
aa(lp2206
g394
aI123
aa(lp2207
g1581
aI246
aa(lp2208
g631
aI123
aa(lp2209
g831
aI133
aa(lp2210
g16
aI123
aa(lp2211
g1306
aI246
aa(lp2212
g834
aI246
aa(lp2213
g925
aI139
aa(lp2214
g57
aI369
aa(lp2215
g836
aI261
aa(lp2216
g561
aI57
aa(lp2217
g1480
aI116
aa(lp2218
g335
aI36
aa(lp2219
g431
aI45
aa(lp2220
g633
aI33
aa(lp2221
g439
aI72
aa(lp2222
g77
aI25
aa(lp2223
g629
aI25
aa(lp2224
g1218
aI25
aa(lp2225
g1439
aI25
aa(lp2226
g68
aI25
aa(lp2227
g666
aI25
aa(lp2228
g1478
aI25
aa(lp2229
g65
aI25
aa(lp2230
g1576
aI25
aa(lp2231
g223
aI25
aa(lp2232
g1180
aI25
aa(lp2233
g555
aI26
aa(lp2234
g222
aI25
aa(lp2235
g868
aI25
aa(lp2236
g526
aI183
aa(lp2237
g783
aI61
aa(lp2238
g905
aI61
aa(lp2239
g421
aI61
aa(lp2240
g1198
aI61
aa(lp2241
g178
aI105
aa(lp2242
g1579
aI139
aa(lp2243
g1354
aI55
aa(lp2244
g792
aI82
aa(lp2245
g960
aI72
aa(lp2246
g1395
aI72
aa(lp2247
g780
aI81
aa(lp2248
g506
aI72
aa(lp2249
g890
aI72
aa(lp2250
g756
aI72
aa(lp2251
g254
aI72
aa(lp2252
g828
aI72
aa(lp2253
g1500
aI85
aa(lp2254
g1570
aI85
aa(lp2255
g1175
aI72
aa(lp2256
g320
aI72
aa(lp2257
g45
aI144
aa(lp2258
g704
aI72
aa(lp2259
g1593
aI72
aa(lp2260
g316
aI72
aa(lp2261
g1364
aI72
aa(lp2262
g360
aI72
aa(lp2263
g545
aI49
aa(lp2264
g1344
aI49
aa(lp2265
g1285
aI37
aa(lp2266
g985
aI74
aa(lp2267
g668
aI41
aa(lp2268
g1063
aI14
aa(lp2269
g245
aI14
aa(lp2270
g1561
aI14
aa(lp2271
g1409
aI48
aa(lp2272
g1270
aI14
aa(lp2273
g343
aI21
aa(lp2274
g163
aI43
aa(lp2275
g1267
aI37
aa(lp2276
g225
aI124
aa(lp2277
g411
aI37
aa(lp2278
g70
aI37
aa(lp2279
g657
aI37
aa(lp2280
g359
aI37
aa(lp2281
g857
aI74
aa(lp2282
g938
aI37
aa(lp2283
g538
aI54
aa(lp2284
g814
aI37
aa(lp2285
g1128
aI37
aa(lp2286
g996
aI113
aa(lp2287
g33
aI37
aa(lp2288
g856
aI43
aa(lp2289
g14
aI37
aa(lp2290
g1507
aI37
aa(lp2291
g169
aI74
aa(lp2292
g1065
aI37
aa(lp2293
g61
aI37
aa(lp2294
g576
aI24
aa(lp2295
g670
aI70
aa(lp2296
g1125
aI24
aa(lp2297
g1164
aI69
aa(lp2298
g1050
aI24
aa(lp2299
g296
aI24
aa(lp2300
g679
aI45
aa(lp2301
g588
aI9
aa(lp2302
g691
aI84
aa(lp2303
g752
aI12
aa(lp2304
g1412
aI12
aa(lp2305
g769
aI12
aa(lp2306
g21
aI12
aa(lp2307
g262
aI48
aa(lp2308
g699
aI10
aa(lp2309
g645
aI5
aa(lp2310
g236
aI5
aa(lp2311
g1212
aI140
aa(lp2312
g275
aI140
aa(lp2313
g1527
aI140
aa(lp2314
g1105
aI9
aa(lp2315
g1183
aI18
aa(lp2316
g876
aI9
aa(lp2317
g1144
aI9
aa(lp2318
g1603
aI10
aa(lp2319
g1007
aI9
aa(lp2320
g958
aI9
aa(lp2321
g1503
aI18
aa(lp2322
g1456
aI9
aa(lp2323
g1001
aI9
aa(lp2324
g341
aI10
aa(lp2325
g760
aI133
aa(lp2326
g671
aI133
aa(lp2327
g25
aI22
aa(lp2328
g234
aI22
aa(lp2329
g422
aI22
aa(lp2330
g751
aI93
aa(lp2331
g199
aI25
aa(lp2332
g618
aI23
aa(lp2333
g1207
aI23
aa(lp2334
g349
aI46
aa(lp2335
g1549
aI23
aa(lp2336
g926
aI23
aa(lp2337
g806
aI43
aa(lp2338
g554
aI23
aa(lp2339
g865
aI23
aa(lp2340
g358
aI23
aa(lp2341
g1208
aI23
aa(lp2342
g1515
aI23
aa(lp2343
g1174
aI31
aa(lp2344
g1394
aI23
aa(lp2345
g733
aI23
aa(lp2346
g954
aI23
aa(lp2347
g1010
aI23
aa(lp2348
g637
aI23
aa(lp2349
g1196
aI23
aa(lp2350
g1454
aI55
aa(lp2351
g842
aI55
aa(lp2352
g344
aI12
aa(lp2353
g928
aI12
aa(lp2354
g79
aI12
aa(lp2355
g819
aI12
aa(lp2356
g1165
aI12
aa(lp2357
g807
aI12
aa(lp2358
g475
aI12
aa(lp2359
g1495
aI12
aa(lp2360
g823
aI12
aa(lp2361
g1368
aI12
aa(lp2362
g476
aI12
aa(lp2363
g424
aI12
aa(lp2364
g999
aI42
aa(lp2365
g502
aI21
aa(lp2366
g1407
aI22
aa(lp2367
g899
aI15
aa(lp2368
g569
aI19
aa(lp2369
g272
aI19
aa(lp2370
g877
aI19
aa(lp2371
g1353
aI96
aa(lp2372
g205
aI96
aa(lp2373
g732
aI98
aa(lp2374
g689
aI76
aa(lp2375
g1028
aI155
aa(lp2376
g848
aI76
aa(lp2377
g1134
aI76
aa(lp2378
g1427
aI76
aa(lp2379
g981
aI76
aa(lp2380
g608
aI79
aa(lp2381
g1396
aI76
aa(lp2382
g1415
aI76
aa(lp2383
g880
aI76
aa(lp2384
g1244
aI76
aa(lp2385
g636
aI20
aa(lp2386
g582
aI20
aa(lp2387
g681
aI16
aa(lp2388
g1042
aI17
aa(lp2389
g724
aI8
aa(lp2390
g1199
aI8
aa(lp2391
g1061
aI8
aa(lp2392
g1438
aI8
aa(lp2393
g140
aI24
aa(lp2394
g1531
aI8
aa(lp2395
g1351
aI8
aa(lp2396
g286
aI8
aa(lp2397
g1056
aI8
aa(lp2398
g468
aI81
aa(lp2399
g39
aI10
aa(lp2400
g1137
aI15
aa(lp2401
g67
aI10
aa(lp2402
g1455
aI10
aa(lp2403
g247
aI5
aa(lp2404
g317
aI22
aa(lp2405
g1559
aI10
aa(lp2406
g1232
aI10
aa(lp2407
g1451
aI253
aa(lp2408
g644
aI5
aa(lp2409
g387
aI154
aa(lp2410
g1220
aI79
aa(lp2411
g1538
aI14
aa(lp2412
g1555
aI14
aa(lp2413
g904
aI14
aa(lp2414
g946
aI14
aa(lp2415
g83
aI18
aa(lp2416
g776
aI72
aa(lp2417
g450
aI14
aa(lp2418
g1275
aI64
aa(lp2419
g833
aI31
aa(lp2420
g388
aI68
aa(lp2421
g797
aI67
aa(lp2422
g1239
aI67
aa(lp2423
g599
aI72
aa(lp2424
g827
aI67
aa(lp2425
g487
aI326
aa(lp2426
g1607
aI67
aa(lp2427
g888
aI67
aa(lp2428
g578
aI67
aa(lp2429
g843
aI67
aa(lp2430
g85
aI67
aa(lp2431
g219
aI67
aa(lp2432
g1273
aI71
aa(lp2433
g1329
aI67
aa(lp2434
g1130
aI67
aa(lp2435
g1571
aI67
aa(lp2436
g1311
aI67
aa(lp2437
g1283
aI67
aa(lp2438
g1036
aI20
aa(lp2439
g939
aI20
aa(lp2440
g510
aI23
aa(lp2441
g1305
aI20
aa(lp2442
g1197
aI20
aa(lp2443
g168
aI20
aa(lp2444
g357
aI20
aa(lp2445
g1288
aI20
aa(lp2446
g898
aI20
aa(lp2447
g719
aI20
aa(lp2448
g684
aI20
aa(lp2449
g1609
aI20
aa(lp2450
g1238
aI20
aa(lp2451
g382
aI20
aa(lp2452
g1025
aI20
aa(lp2453
g1286
aI20
aa(lp2454
g790
aI20
aa(lp2455
g10
aI20
aa(lp2456
g1502
aI20
aa(lp2457
g768
aI22
aa(lp2458
g1204
aI20
aa(lp2459
g1272
aI20
aa(lp2460
g1017
aI20
aa(lp2461
g628
aI20
aa(lp2462
g1047
aI20
aa(lp2463
g172
aI141
aa(lp2464
g266
aI47
aa(lp2465
g1393
aI47
aa(lp2466
g647
aI26
aa(lp2467
g20
aI19
aa(lp2468
g952
aI18
aa(lp2469
g351
aI58
aa(lp2470
g885
aI58
aa(lp2471
g892
aI58
aa(lp2472
g319
aI60
aa(lp2473
g100
aI28
aa(lp2474
g1072
aI29
aa(lp2475
g626
aI94
aa(lp2476
g1090
aI58
aa(lp2477
g265
aI39
aa(lp2478
g917
aI31
aa(lp2479
g56
aI29
aa(lp2480
g215
aI52
aa(lp2481
g1550
aI29
aa(lp2482
g195
aI29
aa(lp2483
g253
aI39
aa(lp2484
g775
aI39
aa(lp2485
g240
aI3
aa(lp2486
g1452
aI2
aa(lp2487
g1184
aI2
aa(lp2488
g244
aI2
aa(lp2489
g712
aI2
aa(lp2490
g238
aI2
aa(lp2491
g303
aI2
aa(lp2492
g1442
aI4
aa(lp2493
g1190
aI4
aa(lp2494
g1084
aI4
aa(lp2495
g714
aI4
aa(lp2496
g179
aI4
aa(lp2497
g935
aI4
aa(lp2498
g1314
aI4
aa(lp2499
g598
aI4
aa(lp2500
g1413
aI4
aa(lp2501
g669
aI4
aa(lp2502
g1216
aI4
aa(lp2503
g96
aI4
aa(lp2504
g1034
aI9
aa(lp2505
g524
aI4
aa(lp2506
g1332
aI3
aa(lp2507
g967
aI6
aa(lp2508
g9
aI3
aa(lp2509
g673
aI6
aa(lp2510
g1087
aI78
aa(lp2511
g302
aI4
aa(lp2512
g549
aI4
aa(lp2513
g1357
aI12
aa(lp2514
g503
aI12
aa(lp2515
g1027
aI13
aa(lp2516
g866
aI12
aa(lp2517
g166
aI15
aa(lp2518
g376
aI15
aa(lp2519
g12
aI15
aa(lp2520
g1214
aI12
aa(lp2521
g186
aI12
aa(lp2522
g269
aI13
aa(lp2523
g338
aI12
aa(lp2524
g851
aI12
aa(lp2525
g1088
aI15
aa(lp2526
g307
aI20
aa(lp2527
g1482
aI7
aa(lp2528
g1362
aI7
aa(lp2529
g973
aI25
aa(lp2530
g1493
aI25
aa(lp2531
g586
aI25
aa(lp2532
g1325
aI25
aa(lp2533
g758
aI25
aa(lp2534
g1521
aI25
aa(lp2535
g922
aI25
aa(lp2536
g97
aI25
aa(lp2537
g1268
aI25
aa(lp2538
g1118
aI25
aa(lp2539
g78
aI17
aa(lp2540
g870
aI17
aa(lp2541
g1444
aI17
aa(lp2542
g129
aI14
aa(lp2543
g803
aI5
aa(lp2544
g331
aI5
aa(lp2545
g1373
aI5
aa(lp2546
g312
aI8
aa(lp2547
g334
aI14
aa(lp2548
g1497
aI8
aa(lp2549
g1020
aI40
aa(lp2550
g206
aI8
aa(lp2551
g1595
aI8
aa(lp2552
g907
aI8
aa(lp2553
g148
aI10
aa(lp2554
g109
aI10
aa(lp2555
g641
aI35
aa(lp2556
g596
aI11
aa(lp2557
g497
aI10
aa(lp2558
g894
aI10
aa(lp2559
g458
aI66
aa(lp2560
g378
aI66
aa(lp2561
g908
aI66
aa(lp2562
g323
aI66
aa(lp2563
g1312
aI132
aa(lp2564
g1219
aI132
aa(lp2565
g1499
aI105
aa(lp2566
g1518
aI66
aa(lp2567
g729
aI66
aa(lp2568
g1411
aI66
aa(lp2569
g1342
aI95
aa(lp2570
g1300
aI66
aa(lp2571
g593
aI66
aa(lp2572
g813
aI70
aa(lp2573
g1525
aI66
aa(lp2574
g53
aI77
aa(lp2575
g1529
aI66
aa(lp2576
g428
aI66
aa(lp2577
g661
aI66
aa(lp2578
g306
aI66
aa(lp2579
g1069
aI66
aa(lp2580
g435
aI66
aa(lp2581
g143
aI66
aa(lp2582
g997
aI66
aa(lp2583
g916
aI66
aa(lp2584
g1247
aI132
aa(lp2585
g145
aI66
aa(lp2586
g1023
aI66
aa(lp2587
g1563
aI71
aa(lp2588
g1254
aI66
aa(lp2589
g1236
aI66
aa(lp2590
g1012
aI104
aa(lp2591
g1330
aI312
aa(lp2592
g409
aI104
aa(lp2593
g652
aI105
aa(lp2594
g1081
aI104
aa(lp2595
g1558
aI147
aa(lp2596
g949
aI15
aa(lp2597
g601
aI15
aa(lp2598
g1601
aI15
aa(lp2599
g718
aI15
aa(lp2600
g465
aI45
aa(lp2601
g748
aI45
aa(lp2602
g523
aI53
aa(lp2603
g1251
aI45
aa(lp2604
g739
aI45
aa(lp2605
g412
aI42
aa(lp2606
g55
aI29
aa(lp2607
g838
aI42
aa(lp2608
g1422
aI29
aa(lp2609
g256
aI29
aa(lp2610
g146
aI29
aa(lp2611
g1126
aI29
aa(lp2612
g619
aI23
aa(lp2613
g1171
aI23
aa(lp2614
g192
aI23
aa(lp2615
g558
aI28
aa(lp2616
g377
aI23
aa(lp2617
g1066
aI23
aa(lp2618
g840
aI24
aa(lp2619
g1575
aI23
aa(lp2620
g153
aI23
aa(lp2621
g495
aI23
aa(lp2622
g1588
aI23
aa(lp2623
g782
aI47
aa(lp2624
g1296
aI23
aa(lp2625
g1560
aI23
aa(lp2626
g1401
aI35
aa(lp2627
g864
aI35
aa(lp2628
g1189
aI35
aa(lp2629
g1054
aI57
aa(lp2630
g1135
aI35
aa(lp2631
g583
aI35
aa(lp2632
g736
aI49
aa(lp2633
g1086
aI9
aa(lp2634
g457
aI9
aa(lp2635
g384
aI9
aa(lp2636
g980
aI9
aa(lp2637
g89
aI9
aa(lp2638
g1290
aI24
aa(lp2639
g770
aI16
aa(lp2640
g332
aI16
aa(lp2641
g288
aI16
aa(lp2642
g1097
aI16
aa(lp2643
g1076
aI4
aa(lp2644
g177
aI4
aa(lp2645
g777
aI43
aa(lp2646
g1361
aI129
aa(lp2647
g1432
aI86
aa(lp2648
g309
aI43
aa(lp2649
g989
aI43
aa(lp2650
g852
aI43
aa(lp2651
g347
aI86
aa(lp2652
g1039
aI86
aa(lp2653
g1474
aI43
aa(lp2654
g93
aI43
aa(lp2655
g975
aI43
aa(lp2656
g1347
aI86
aa(lp2657
g167
aI47
aa(lp2658
g552
aI43
aa(lp2659
g470
aI86
aa(lp2660
g695
aI43
aa(lp2661
g251
aI86
aa(lp2662
g445
aI43
aa(lp2663
g1471
aI14
aa(lp2664
g405
aI14
aa(lp2665
g340
aI14
aa(lp2666
g1331
aI30
aa(lp2667
g1301
aI15
aa(lp2668
g1426
aI15
aa(lp2669
g1193
aI15
aa(lp2670
g1166
aI10
aa(lp2671
g563
aI10
aa(lp2672
g735
aI10
aa(lp2673
g1221
aI10
aa(lp2674
g452
aI1
aa(lp2675
g1349
aI10
aa(lp2676
g1526
aI10
aa(lp2677
g32
aI14
aa(lp2678
g1582
aI14
aa(lp2679
g710
aI14
aa(lp2680
g1460
aI14
aa(lp2681
g38
aI16
aa(lp2682
g1104
aI14
aa(lp2683
g406
aI14
aa(lp2684
g117
aI55
aa(lp2685
g1252
aI57
aa(lp2686
g34
aI219
aa(lp2687
g188
aI8
aa(lp2688
g1522
aI10
aa(lp2689
g132
aI44
aa(lp2690
g128
aI69
aa(lp2691
g893
aI17
aa(lp2692
g995
aI28
aa(lp2693
g1008
aI7
aa(lp2694
g1139
aI14
aa(lp2695
g63
aI7
aa(lp2696
g433
aI7
aa(lp2697
g1551
aI7
aa(lp2698
g972
aI18
aa(lp2699
g82
aI7
aa(lp2700
g1006
aI7
aa(lp2701
g203
aI7
aa(lp2702
g1414
aI7
aa(lp2703
g137
aI5
aa(lp2704
g472
aI3
aa(lp2705
g822
aI3
aa(lp2706
g773
aI76
aa(lp2707
g1053
aI30
aa(lp2708
g896
aI8
aa(lp2709
g988
aI2
aa(lp2710
g194
aI2
aa(lp2711
g1446
aI19
aa(lp2712
g686
aI38
aa(lp2713
g1552
aI19
aa(lp2714
g122
aI19
aa(lp2715
g708
aI39
aa(lp2716
g94
aI19
aa(lp2717
g1080
aI19
aa(lp2718
g698
aI19
aa(lp2719
g176
aI19
aa(lp2720
g99
aI19
aa(lp2721
g530
aI19
aa(lp2722
g974
aI19
aa(lp2723
g1336
aI32
aa(lp2724
g1591
aI32
aa(lp2725
g47
aI32
aa(lp2726
g1149
aI47
aa(lp2727
g982
aI33
aa(lp2728
g1250
aI32
aa(lp2729
g31
aI32
aa(lp2730
g235
aI36
aa(lp2731
g1035
aI32
aa(lp2732
g920
aI32
aa(lp2733
g1195
aI32
aa(lp2734
g1055
aI32
aa(lp2735
g961
aI14
aa(lp2736
g1233
aI7
aa(lp2737
g1064
aI10
aa(lp2738
g757
aI10
aa(lp2739
g1520
aI5
aa(lp2740
g1094
aI5
aa(lp2741
g181
aI5
aa(lp2742
g1253
aI5
aa(lp2743
g680
aI5
aa(lp2744
g75
aI5
aa(lp2745
g1024
aI5
aa(lp2746
g1284
aI5
aa(lp2747
g1363
aI5
aa(lp2748
g1029
aI5
aa(lp2749
g1326
aI12
aa(lp2750
g1458
aI12
aa(lp2751
g1556
aI12
aa(lp2752
g141
aI2
aa(lp2753
g237
aI13
aa(lp2754
g278
aI13
aa(lp2755
g571
aI13
aa(lp2756
g1436
aI26
aa(lp2757
g1261
aI13
aa(lp2758
g659
aI23
aa(lp2759
g1240
aI13
aa(lp2760
g202
aI13
aa(lp2761
g1143
aI17
aa(lp2762
g1206
aI13
aa(lp2763
g832
aI26
aa(lp2764
g891
aI13
aa(lp2765
g1129
aI13
aa(lp2766
g1378
aI13
aa(lp2767
g984
aI13
aa(lp2768
g1486
aI13
aa(lp2769
g979
aI13
aa(lp2770
g835
aI13
aa(lp2771
g1537
aI13
aa(lp2772
g260
aI13
aa(lp2773
g111
aI13
aa(lp2774
g796
aI13
aa(lp2775
g407
aI13
aa(lp2776
g983
aI13
aa(lp2777
g505
aI13
aa(lp2778
g37
aI13
aa(lp2779
g1532
aI16
aa(lp2780
g702
aI16
aa(lp2781
g993
aI7
aa(lp2782
g364
aI6
aa(lp2783
g51
aI9
aa(lp2784
g1082
aI6
aa(lp2785
g50
aI18
aa(lp2786
g844
aI21
aa(lp2787
g1310
aI9
aa(lp2788
g1473
aI9
aa(lp2789
g395
aI9
aa(lp2790
g228
aI9
aa(lp2791
g656
aI9
aa(lp2792
g1060
aI9
aa(lp2793
g417
aI16
aa(lp2794
g110
aI16
aa(lp2795
g1302
aI3
aa(lp2796
g274
aI3
aa(lp2797
g1098
aI3
aa(lp2798
g755
aI7
aa(lp2799
g747
aI7
aa(lp2800
g1210
aI7
aa(lp2801
g155
aI7
aa(lp2802
g1424
aI7
aa(lp2803
g525
aI8
aa(lp2804
g477
aI8
aa(lp2805
g594
aI8
aa(lp2806
g1429
aI8
aa(lp2807
g683
aI8
aa(lp2808
g727
aI8
aa(lp2809
g273
aI20
aa(lp2810
g80
aI16
aa(lp2811
g1202
aI10
aa(lp2812
g886
aI23
aa(lp2813
g934
aI21
aa(lp2814
g665
aI21
aa(lp2815
g1077
aI21
aa(lp2816
g547
aI21
aa(lp2817
g784
aI21
aa(lp2818
g1564
aI21
aa(lp2819
g492
aI21
aa(lp2820
g969
aI21
aa(lp2821
g587
aI21
aa(lp2822
g805
aI21
aa(lp2823
g95
aI21
aa(lp2824
g139
aI5
aa(lp2825
g815
aI10
aa(lp2826
g675
aI5
aa(lp2827
g414
aI5
aa(lp2828
g987
aI5
aa(lp2829
g854
aI5
aa(lp2830
g1260
aI5
aa(lp2831
g1003
aI5
aa(lp2832
g484
aI5
aa(lp2833
g635
aI5
aa(lp2834
g818
aI5
aa(lp2835
g35
aI4
aa(lp2836
g639
aI1
aa(lp2837
g1324
aI1
aa(lp2838
g1501
aI1
aa(lp2839
g149
aI1
aa(lp2840
g1587
aI1
aa(lp2841
g1611
aI7
aa(lp2842
g962
aI21
aa(lp2843
g1577
aI6
aa(lp2844
g233
aI6
aa(lp2845
g19
aI6
aa(lp2846
g1110
aI6
aa(lp2847
g1517
aI6
aa(lp2848
g1243
aI6
aa(lp2849
g1111
aI6
aa(lp2850
g940
aI6
aa(lp2851
g474
aI17
aa(lp2852
g1321
aI6
aa(lp2853
g623
aI14
aa(lp2854
g1440
aI14
aa(lp2855
g1573
aI14
aa(lp2856
g950
aI14
aa(lp2857
g11
aI1
aa(lp2858
g1406
aI1
aa(lp2859
g957
aI1
aa(lp2860
g453
aI1
aa(lp2861
g978
aI2
aa(lp2862
g546
aI1
aa(lp2863
g201
aI1
aa(lp2864
g1472
aI1
aa(lp2865
g217
aI1
aa(lp2866
g311
aI1
aa(lp2867
g519
aI4
aa(lp2868
g1335
aI5
aa(lp2869
g1327
aI5
aa(lp2870
g290
aI9
aa(lp2871
g1259
aI18
aa(lp2872
g1289
aI12
aa(lp2873
g1033
aI9
aa(lp2874
g990
aI3
aa(lp2875
g276
aI18
aa(lp2876
g73
aI18
aa(lp2877
g30
aI1
aa(lp2878
g1071
aI1
aa(lp2879
g1223
aI1
aa(lp2880
g1448
aI3
aa(lp2881
g126
aI3
aa(lp2882
g1245
aI3
aa(lp2883
g937
aI3
aa(lp2884
g455
aI3
aa(lp2885
g374
aI17
aa(lp2886
g1359
aI2
aa(lp2887
g738
aI13
aa(lp2888
g1108
aI13
aa(lp2889
g948
aI2
aa(lp2890
g539
aI2
aa(lp2891
g611
aI41
aa(lp2892
g1117
aI3
aa(lp2893
g910
aI2
aa(lp2894
g1140
aI2
aa(lp2895
g858
aI2
aa(lp2896
g446
aI2
aa(lp2897
g945
aI2
aa(lp2898
g1459
aI1
aa(lp2899
g1461
aI1
aa(lp2900
g873
aI1
aa(lp2901
g690
aI1
aa(lp2902
g1470
aI1
aa(lp2903
g91
aI1
aa(lp2904
g104
aI1
aa(lp2905
g1005
aI1
aa(lp2906
g550
aI5
aa(lp2907
g1096
aI2
aa(lp2908
g1186
aI6
aa(lp2909
g473
aI21
aa(lp2910
g640
aI21
aa(lp2911
g501
aI21
aa(lp2912
g1544
aI42
aa(lp2913
g936
aI21
aa(lp2914
g1121
aI21
aa(lp2915
g1553
aI21
aa(lp2916
g1489
aI42
aa(lp2917
g1382
aI21
aa(lp2918
g289
aI21
aa(lp2919
g1492
aI21
aa(lp2920
g696
aI7
aa(lp2921
g781
aI7
aa(lp2922
g490
aI5
aa(lp2923
g419
aI9
aa(lp2924
g267
aI9
aa(lp2925
g1182
aI27
aa(lp2926
g17
aI9
aa(lp2927
g778
aI9
aa(lp2928
g1546
aI9
aa(lp2929
g869
aI18
aa(lp2930
g98
aI9
aa(lp2931
g590
aI16
aa(lp2932
g456
aI10
aa(lp2933
g156
aI10
aa(lp2934
g527
aI10
aa(lp2935
g646
aI8
aa(lp2936
g1384
aI9
aa(lp2937
g912
aI5
aa(lp2938
g1574
aI7
aa(lp2939
g911
aI24
aa(lp2940
g731
aI15
aa(lp2941
g494
aI15
aa(lp2942
g860
aI15
aa(lp2943
g1467
aI1
aa(lp2944
g932
aI1
aa(lp2945
g1602
aI1
aa(lp2946
g36
aI1
aa(lp2947
g859
aI1
aa(lp2948
g1397
aI1
aa(lp2949
g654
aI5
aa(lp2950
g151
aI5
aa(lp2951
g69
aI5
aa(lp2952
g642
aI5
aa(lp2953
g567
aI5
aa(lp2954
g1091
aI5
aa(lp2955
g1132
aI5
aa(lp2956
g214
aI5
aa(lp2957
g460
aI5
aa(lp2958
g248
aI5
aa(lp2959
g466
aI5
aa(lp2960
g297
aI5
aa(lp2961
g568
aI11
aa(lp2962
g1387
aI4
aa(lp2963
g308
aI1
aa(lp2964
g1147
aI1
aa(lp2965
g1491
aI1
aa(lp2966
g1224
aI7
aa(lp2967
g157
aI1
aa(lp2968
g1052
aI1
aa(lp2969
g1200
aI1
aa(lp2970
g895
aI1
aa(lp2971
g1016
aI3
aa(lp2972
g482
aI1
aa(lp2973
g333
aI1
aa(lp2974
g1447
aI1
aa(lp2975
g226
aI1
aa(lp2976
g1138
aI1
aa(lp2977
g861
aI1
aa(lp2978
g613
aI1
aa(lp2979
g740
aI1
aa(lp2980
g516
aI1
aa(lp2981
g616
aI1
aa(lp2982
g270
aI1
aa(lp2983
g420
aI5
aa(lp2984
g383
aI4
aa(lp2985
g1389
aI4
aa(lp2986
g1418
aI4
aa(lp2987
g1229
aI4
aa(lp2988
g535
aI4
aa(lp2989
g161
aI4
aa(lp2990
g786
aI5
aa(lp2991
g1437
aI7
aa(lp2992
g1367
aI5
aa(lp2993
g1514
aI5
aa(lp2994
g918
aI10
aa(lp2995
g144
aI5
aa(lp2996
g703
aI5
aa(lp2997
g693
aI5
aa(lp2998
g1018
aI5
aa(lp2999
g1377
aI5
aa(lp3000
g536
aI5
aa(lp3001
g1370
aI25
aa(lp3002
g184
aI25
aa(lp3003
g396
aI1
aa(lp3004
g1610
aI1
aa(lp3005
g794
aI5
aa(lp3006
g824
aI5
aa(lp3007
g830
aI1
aa(lp3008
g1234
aI1
aa(lp3009
g799
aI1
aa(lp3010
g709
aI1
aa(lp3011
g1450
aI3
aa(lp3012
g1402
aI3
aa(lp3013
g1466
aI2
aa(lp3014
g430
aI16
aa(lp3015
g1339
aI16
aa(lp3016
g483
aI16
aa(lp3017
g617
aI48
aa(lp3018
g1170
aI16
aa(lp3019
g1145
aI16
aa(lp3020
g826
aI16
aa(lp3021
g863
aI16
aa(lp3022
g355
aI16
aa(lp3023
g361
aI16
aa(lp3024
g212
aI6
aa(lp3025
g380
aI6
aa(lp3026
g650
aI12
aa(lp3027
g1592
aI6
aa(lp3028
g909
aI6
aa(lp3029
g923
aI6
aa(lp3030
g1469
aI6
aa(lp3031
g947
aI6
aa(lp3032
g884
aI2
aa(lp3033
g1543
aI2
aa(lp3034
g284
aI2
aa(lp3035
g1313
aI2
aa(lp3036
g280
aI2
aa(lp3037
g1307
aI2
aa(lp3038
g1498
aI4
aa(lp3039
g1000
aI4
aa(lp3040
g1585
aI1
aa(lp3041
g1177
aI1
aa(lp3042
g108
aI2
aa(lp3043
g1598
aI1
aa(lp3044
g705
aI1
aa(lp3045
g1291
aI1
aa(lp3046
g902
aI3
aa(lp3047
g229
aI3
aa(lp3048
g401
aI3
aa(lp3049
g1392
aI3
aa(lp3050
g447
aI3
aa(lp3051
g574
aI3
aa(lp3052
g1485
aI3
aa(lp3053
g1605
aI2
aa(lp3054
g271
aI1
aa(lp3055
g1113
aI5
aa(lp3056
g1408
aI3
aa(lp3057
g715
aI3
aa(lp3058
g1107
aI3
aa(lp3059
g389
aI3
aa(lp3060
g1115
aI3
aa(lp3061
g1567
aI3
aa(lp3062
g845
aI3
aa(lp3063
g761
aI1
aa(lp3064
g716
aI1
aa(lp3065
g701
aI1
aa(lp3066
g976
aI1
aa(lp3067
g853
aI2
aa(lp3068
g393
aI2
aa(lp3069
g1237
aI10
aa(lp3070
g437
aI10
aa(lp3071
g291
aI10
aa(lp3072
g329
aI2
aa(lp3073
g1222
aI2
aa(lp3074
g305
aI6
aa(lp3075
g931
aI3
aa(lp3076
g573
aI6
aa(lp3077
g252
aI6
aa(lp3078
g164
aI6
aa(lp3079
g285
aI6
aa(lp3080
g1031
aI9
aa(lp3081
g345
aI9
aa(lp3082
g196
aI18
aa(lp3083
g1484
aI9
aa(lp3084
g1343
aI2
aa(lp3085
g210
aI1
aa(lp3086
g1154
aI1
aa(lp3087
g697
aI1
aa(lp3088
g102
aI1
aa(lp3089
g1528
aI1
aa(lp3090
g130
aI3
aa(lp3091
g1022
aI3
aa(lp3092
g218
aI3
aa(lp3093
g1150
aI2
aa(lp3094
g942
aI1
aa(lp3095
g1009
aI6
aa(lp3096
g432
aI1
aa(lp3097
g1269
aI1
aa(lp3098
g191
aI2
aa(lp3099
g801
aI1
aa(lp3100
g625
aI1
aa(lp3101
g674
aI1
aa(lp3102
g480
aI1
aa(lp3103
g1172
aI1
aa(lp3104
g614
aI1
aa(lp3105
g725
aI1
aa(lp3106
g1185
aI1
aa(lp3107
g454
aI1
aa(lp3108
g29
aI1
aa(lp3109
g1483
aI1
aa(lp3110
g746
aI1
aa(lp3111
g1379
aI1
aa(lp3112
g372
aI1
aa(lp3113
g1404
aI1
aa(lp3114
g381
aI1
aa(lp3115
g1375
aI1
aa(lp3116
g1067
aI1
aa(lp3117
g841
aI1
aa(lp3118
g1425
aI1
aa(lp3119
g998
aI1
aa(lp3120
g127
aI1
aa(lp3121
g1430
aI1
aa(lp3122
g15
aI4
aa(lp3123
g498
aI4
aa(lp3124
g1038
aI4
aa(lp3125
g299
aI4
aa(lp3126
g521
aI4
aa(lp3127
g398
aI4
aa(lp3128
g444
aI4
aa(lp3129
g513
aI4
aa(lp3130
g1539
aI4
aa(lp3131
g478
aI4
aa(lp3132
g1398
aI1
aa(lp3133
g1320
aI1
aa(lp3134
g1487
aI1
aa(lp3135
g242
aI1
aa(lp3136
g717
aI1
aa(lp3137
g1477
aI1
aa(lp3138
g1211
aI1
aa(lp3139
g261
aI1
aa(lp3140
g282
aI1
aa(lp3141
g1217
aI1
aa(lp3142
g403
aI1
aa(lp3143
g919
aI1
aa(lp3144
g368
aI4
aa(lp3145
g402
aI4
aa(lp3146
g1572
aI4
aa(lp3147
g1400
aI4
aa(lp3148
g765
aI4
aa(lp3149
g1059
aI4
aa(lp3150
g1095
aI4
aa(lp3151
g133
aI4
aa(lp3152
g1109
aI2
aa(lp3153
g170
aI2
aa(lp3154
g1541
aI6
aa(lp3155
g1365
aI2
aa(lp3156
g88
aI2
aa(lp3157
g1156
aI2
aa(lp3158
g1346
aI4
aa(lp3159
g741
aI1
aa(lp3160
g277
aI1
aa(lp3161
g451
aI1
aa(lp3162
g1494
aI1
aa(lp3163
g339
aI1
aa(lp3164
g1155
aI1
aa(lp3165
g87
aI1
aa(lp3166
g479
aI1
aa(lp3167
g809
aI1
aa(lp3168
g1043
aI1
aa(lp3169
g643
aI1
aa(lp3170
g694
aI1
aa(lp3171
g584
aI1
aa(lp3172
g43
aI1
aa(lp3173
g849
aI1
aa(lp3174
g371
aI1
aa(lp3175
g1488
aI2
aa(lp3176
g509
aI2
aa(lp3177
g543
aI4
aa(lp3178
g1366
aI2
aa(lp3179
g1464
aI2
aa(lp3180
g425
aI2
aa(lp3181
g507
aI2
aa(lp3182
g72
aI2
aa(lp3183
g517
aI2
aa(lp3184
g449
aI2
aa(lp3185
g1423
aI1
aa(lp3186
g321
aI1
aa(lp3187
g1124
aI1
aa(lp3188
g927
aI1
aa(lp3189
g560
aI1
aa(lp3190
g1083
aI2
aa(lp3191
g1248
aI2
aa(lp3192
g443
aI3
aa(lp3193
g462
aI4
aa(lp3194
g924
aI2
aa(lp3195
g1176
aI1
aa(lp3196
g464
aI1
aa(lp3197
g136
aI1
aa(lp3198
g350
aI1
aa(lp3199
g301
aI1
aa(lp3200
g1178
aI1
aa(lp3201
g142
aI1
aa(lp3202
g370
aI1
aa(lp3203
g1512
aI1
aa(lp3204
g121
aI1
aa(lp3205
g711
aI1
aa(lp3206
g808
aI1
aa(lp3207
g878
aI1
aa(lp3208
g655
aI1
aa(lp3209
g62
aI1
aa(lp3210
g1535
aI2
aa(lp3211
g1390
aI1
aa(lp3212
g1058
aI1
aa(lp3213
g346
aI1
aa(lp3214
g511
aI1
aa(lp3215
g356
aI1
aa(lp3216
g131
aI1
aa(lp3217
g46
aI2
aa(lp3218
g1322
aI1
aa(lp3219
g621
aI1
aatp3220
Rp3221
sS'split'
p3222
S' '
p3223
sS'filters'
p3224
S'!"#$%&()*+,-./:;<=>?@[\\]^_`{|}~\t\n'
p3225
sS'word_docs'
p3226
(dp3227
g9
I3
sg24
I52
sg265
I34
sg12
I15
sg13
I6
sg14
I37
sg15
I4
sg16
I123
sg17
I9
sg18
I59
sg19
I6
sg20
I19
sg21
I12
sg22
I296
sg23
I144
sg10
I20
sg25
I22
sg26
I408
sg27
I237
sg28
I51
sg29
I1
sg30
I1
sg31
I32
sg32
I14
sg33
I37
sg34
I54
sg35
I1
sg36
I1
sg832
I13
sg38
I15
sg39
I5
sg40
I16
sg41
I251
sg42
I24
sg43
I1
sg44
I370
sg45
I72
sg46
I1
sg47
I32
sg48
I252
sg49
I6
sg50
I9
sg51
I9
sg52
I102
sg53
I76
sg54
I78
sg55
I29
sg56
I29
sg57
I123
sg58
I251
sg59
I46
sg60
I31
sg61
I37
sg62
I1
sg63
I7
sg325
I86
sg65
I25
sg66
I22
sg67
I5
sg68
I25
sg69
I5
sg70
I37
sg71
I296
sg72
I2
sg73
I18
sg74
I7
sg75
I5
sg76
I65
sg77
I25
sg78
I17
sg79
I12
sg80
I16
sg81
I59
sg82
I7
sg83
I16
sg84
I96
sg85
I67
sg86
I129
sg87
I1
sg88
I2
sg89
I9
sg90
I31
sg91
I1
sg92
I257
sg93
I43
sg842
I55
sg95
I21
sg96
I4
sg97
I25
sg98
I9
sg99
I19
sg100
I28
sg101
I63
sg102
I1
sg103
I782
sg104
I1
sg105
I13
sg106
I29
sg107
I66
sg108
I2
sg109
I10
sg110
I16
sg111
I13
sg112
I22
sg113
I25
sg115
I80
sg116
I114
sg117
I54
sg118
I68
sg285
I6
sg120
I251
sg121
I1
sg122
I19
sg123
I298
sg124
I376
sg125
I630
sg126
I3
sg127
I1
sg128
I65
sg129
I14
sg130
I3
sg131
I1
sg770
I16
sg773
I58
sg134
I794
sg135
I115
sg136
I1
sg137
I5
sg138
I22
sg139
I5
sg140
I8
sg141
I2
sg142
I1
sg143
I66
sg144
I5
sg145
I66
sg146
I29
sg147
I356
sg148
I10
sg149
I1
sg150
I56
sg1381
I1920
sg152
I7
sg153
I23
sg154
I56
sg155
I7
sg156
I10
sg157
I1
sg158
I10
sg159
I44
sg160
I195
sg161
I4
sg162
I112
sg163
I43
sg1017
I20
sg165
I4
sg166
I15
sg167
I47
sg168
I20
sg169
I37
sg170
I2
sg171
I195
sg172
I47
sg173
I252
sg174
I102
sg175
I139
sg176
I19
sg177
I4
sg772
I19
sg179
I4
sg180
I70
sg181
I5
sg182
I75
sg183
I17
sg184
I15
sg185
I251
sg1116
I7
sg187
I22
sg188
I8
sg189
I44
sg190
I14
sg191
I1
sg192
I23
sg193
I144
sg194
I2
sg195
I29
sg1179
I69
sg197
I356
sg198
I23
sg199
I25
sg200
I305
sg201
I1
sg202
I13
sg816
I27
sg869
I9
sg435
I66
sg1223
I1
sg206
I8
sg207
I420
sg208
I85
sg209
I41
sg210
I1
sg211
I61
sg212
I6
sg213
I172
sg214
I5
sg215
I52
sg216
I150
sg217
I1
sg218
I2
sg219
I67
sg220
I181
sg221
I84
sg222
I25
sg223
I25
sg224
I510
sg225
I50
sg226
I1
sg227
I156
sg228
I9
sg229
I3
sg305
I3
sg231
I189
sg232
I61
sg233
I6
sg234
I22
sg235
I34
sg236
I5
sg237
I13
sg238
I2
sg239
I602
sg240
I3
sg241
I103
sg242
I1
sg243
I46
sg244
I2
sg245
I14
sg246
I88
sg247
I5
sg248
I5
sg249
I1417
sg250
I114
sg251
I43
sg252
I6
sg253
I38
sg254
I72
sg255
I3
sg256
I29
sg257
I452
sg258
I356
sg259
I2597
sg260
I13
sg261
I1
sg262
I47
sg263
I31
sg264
I100
sg11
I1
sg266
I47
sg267
I9
sg268
I52
sg269
I13
sg270
I1
sg271
I1
sg272
I19
sg273
I10
sg274
I3
sg275
I140
sg276
I18
sg277
I1
sg278
I13
sg279
I1029
sg280
I2
sg281
I316
sg282
I1
sg283
I217
sg284
I2
sg119
I140
sg286
I8
sg287
I31
sg288
I16
sg289
I21
sg290
I9
sg291
I10
sg292
I1005
sg293
I79
sg294
I24
sg295
I144
sg296
I24
sg297
I5
sg298
I795
sg299
I4
sg300
I481
sg301
I1
sg302
I4
sg303
I2
sg304
I40
sg230
I89
sg306
I66
sg307
I16
sg308
I1
sg309
I43
sg310
I296
sg311
I1
sg312
I8
sg313
I2604
sg314
I77
sg598
I4
sg316
I72
sg317
I22
sg318
I28
sg319
I56
sg320
I72
sg321
I1
sg322
I75
sg323
I66
sg324
I529
sg64
I59
sg326
I45
sg327
I22
sg328
I52
sg329
I2
sg330
I471
sg331
I5
sg332
I16
sg333
I1
sg334
I14
sg335
I36
sg336
I4
sg337
I457
sg338
I12
sg339
I1
sg340
I14
sg341
I10
sg342
I13
sg343
I21
sg344
I12
sg345
I9
sg346
I1
sg347
I43
sg348
I526
sg349
I23
sg350
I1
sg351
I56
sg1570
I85
sg353
I399
sg354
I22
sg355
I16
sg1274
I85
sg357
I20
sg358
I23
sg359
I37
sg360
I72
sg361
I16
sg362
I150
sg363
I48
sg364
I6
sg365
I170
sg366
I105
sg367
I474
sg368
I4
sg369
I159
sg370
I1
sg371
I1
sg372
I1
sg1162
I284
sg373
I70
sg374
I17
sg375
I617
sg376
I15
sg1153
I4
sg378
I66
sg379
I397
sg676
I189
sg381
I1
sg382
I20
sg383
I4
sg384
I9
sg385
I314
sg386
I534
sg387
I71
sg388
I68
sg389
I3
sg390
I25
sg391
I81
sg392
I466
sg393
I2
sg394
I123
sg395
I9
sg396
I1
sg397
I41
sg578
I67
sg399
I104
sg400
I24
sg401
I3
sg402
I4
sg1156
I1
sg906
I252
sg405
I14
sg406
I14
sg407
I13
sg408
I221
sg409
I104
sg410
I305
sg411
I37
sg412
I39
sg413
I699
sg414
I5
sg415
I56
sg416
I156
sg417
I16
sg418
I60
sg419
I9
sg420
I5
sg421
I61
sg422
I22
sg423
I85
sg424
I12
sg425
I2
sg426
I10
sg427
I345
sg428
I66
sg429
I87
sg430
I16
sg431
I45
sg432
I1
sg433
I7
sg434
I40
sg436
I693
sg437
I10
sg438
I70
sg439
I72
sg440
I15
sg441
I1863
sg442
I144
sg443
I3
sg444
I4
sg445
I43
sg447
I3
sg448
I378
sg449
I2
sg450
I14
sg451
I1
sg452
I1
sg453
I1
sg454
I1
sg455
I3
sg456
I10
sg1093
I170
sg458
I66
sg459
I206
sg460
I5
sg461
I356
sg1126
I29
sg463
I85
sg464
I1
sg465
I45
sg466
I5
sg467
I33
sg468
I45
sg469
I250
sg470
I43
sg471
I27
sg472
I3
sg1197
I20
sg474
I16
sg475
I12
sg476
I12
sg477
I8
sg478
I4
sg479
I1
sg480
I1
sg481
I430
sg482
I1
sg1247
I66
sg484
I5
sg485
I36
sg486
I221
sg487
I133
sg488
I51
sg489
I41
sg490
I5
sg491
I18
sg492
I21
sg493
I144
sg494
I15
sg495
I23
sg1323
I13
sg497
I10
sg498
I4
sg499
I52
sg500
I40
sg501
I21
sg502
I21
sg503
I12
sg504
I71
sg505
I13
sg506
I72
sg507
I2
sg508
I992
sg1404
I1
sg510
I23
sg511
I1
sg512
I471
sg513
I4
sg514
I189
sg515
I251
sg516
I1
sg517
I2
sg518
I144
sg519
I4
sg520
I356
sg521
I4
sg522
I794
sg523
I53
sg1447
I1
sg525
I8
sg526
I61
sg527
I10
sg1436
I13
sg356
I1
sg529
I59
sg530
I19
sg531
I201
sg532
I53
sg533
I4413
sg534
I97
sg535
I4
sg536
I5
sg537
I7
sg538
I54
sg539
I2
sg540
I21
sg541
I306
sg542
I18
sg543
I4
sg544
I18
sg545
I49
sg546
I1
sg547
I21
sg925
I139
sg1607
I67
sg550
I5
sg551
I15
sg552
I43
sg553
I27
sg554
I23
sg555
I26
sg556
I22
sg557
I123
sg558
I28
sg559
I55
sg560
I1
sg561
I57
sg562
I305
sg563
I10
sg564
I161
sg565
I251
sg566
I44
sg567
I5
sg568
I11
sg569
I19
sg570
I13
sg571
I13
sg572
I52
sg573
I6
sg574
I3
sg575
I251
sg576
I24
sg577
I6
sg579
I85
sg580
I52
sg581
I200
sg582
I20
sg583
I35
sg584
I1
sg585
I3
sg586
I25
sg587
I21
sg588
I8
sg589
I7
sg590
I16
sg591
I4307
sg592
I114
sg593
I66
sg594
I8
sg595
I84
sg596
I11
sg597
I55
sg315
I320
sg599
I72
sg600
I333
sg601
I15
sg602
I15
sg603
I9
sg604
I244
sg605
I115
sg606
I612
sg607
I13
sg608
I79
sg609
I114
sg610
I59
sg611
I41
sg612
I48
sg613
I1
sg614
I1
sg615
I40
sg616
I1
sg617
I16
sg618
I23
sg619
I23
sg620
I96
sg621
I1
sg622
I46
sg623
I14
sg638
I7
sg625
I1
sg626
I65
sg627
I52
sg628
I20
sg629
I25
sg630
I52
sg631
I123
sg632
I22
sg633
I33
sg634
I13
sg635
I5
sg636
I20
sg637
I23
sg639
I1
sg640
I21
sg641
I14
sg642
I5
sg643
I1
sg644
I5
sg645
I5
sg646
I8
sg647
I26
sg649
I22
sg650
I6
sg651
I18
sg652
I105
sg653
I102
sg654
I5
sg655
I1
sg656
I9
sg657
I37
sg658
I102
sg659
I23
sg660
I59
sg661
I66
sg662
I169
sg663
I52
sg664
I24232
sg665
I21
sg939
I20
sg667
I96
sg668
I39
sg669
I4
sg670
I46
sg671
I132
sg672
I27
sg673
I6
sg674
I1
sg675
I5
sg380
I6
sg677
I2610
sg678
I32
sg679
I45
sg680
I5
sg681
I8
sg682
I36
sg683
I8
sg684
I20
sg685
I96
sg800
I251
sg687
I26
sg688
I33
sg689
I76
sg690
I1
sg691
I12
sg692
I114
sg848
I76
sg694
I1
sg695
I43
sg696
I7
sg697
I1
sg698
I19
sg876
I9
sg700
I38
sg701
I1
sg702
I16
sg703
I5
sg704
I72
sg705
I1
sg706
I251
sg707
I4
sg708
I20
sg709
I1
sg710
I14
sg711
I1
sg712
I2
sg713
I123
sg714
I4
sg715
I3
sg716
I1
sg717
I1
sg718
I15
sg719
I20
sg720
I40
sg721
I296
sg722
I31
sg723
I1940
sg724
I8
sg725
I1
sg726
I295
sg727
I8
sg728
I52
sg729
I66
sg730
I142
sg731
I15
sg732
I98
sg733
I23
sg734
I41
sg735
I10
sg736
I49
sg737
I538
sg738
I13
sg739
I45
sg740
I1
sg741
I1
sg742
I32
sg743
I119
sg744
I155
sg745
I1896
sg746
I1
sg747
I7
sg748
I45
sg749
I35
sg750
I41
sg751
I70
sg752
I12
sg753
I18
sg754
I7
sg755
I7
sg1209
I52
sg757
I5
sg758
I25
sg1465
I48
sg760
I132
sg761
I1
sg762
I231
sg763
I62
sg764
I26
sg765
I4
sg766
I175
sg767
I1661
sg768
I22
sg769
I12
sg132
I44
sg771
I125
sg133
I4
sg774
I888
sg775
I38
sg776
I43
sg777
I43
sg778
I9
sg779
I286
sg780
I81
sg781
I7
sg782
I47
sg783
I61
sg784
I21
sg785
I103
sg786
I5
sg787
I314
sg788
I350
sg789
I15
sg790
I20
sg791
I601
sg792
I82
sg793
I80
sg794
I5
sg795
I279
sg796
I13
sg797
I67
sg798
I4
sg799
I1
sg867
I251
sg801
I1
sg802
I36
sg803
I5
sg804
I237
sg805
I21
sg984
I13
sg806
I43
sg807
I12
sg808
I1
sg809
I1
sg810
I53
sg811
I52
sg812
I150
sg813
I70
sg814
I37
sg815
I10
sg1568
I127
sg817
I254
sg818
I5
sg819
I12
sg820
I31
sg821
I135
sg822
I3
sg823
I12
sg1608
I356
sg825
I114
sg826
I16
sg827
I67
sg828
I72
sg829
I96
sg830
I1
sg831
I133
sg37
I13
sg833
I31
sg834
I123
sg835
I13
sg836
I126
sg837
I468
sg838
I39
sg839
I32
sg840
I24
sg841
I1
sg94
I19
sg843
I67
sg844
I15
sg845
I3
sg846
I22
sg847
I946
sg693
I5
sg849
I1
sg850
I252
sg851
I12
sg852
I43
sg853
I2
sg854
I5
sg855
I22
sg856
I43
sg857
I37
sg858
I2
sg859
I1
sg860
I15
sg861
I1
sg862
I41
sg863
I16
sg864
I35
sg865
I23
sg866
I12
sg868
I25
sg203
I7
sg870
I17
sg871
I85
sg872
I61
sg873
I1
sg875
I156
sg699
I10
sg877
I19
sg878
I1
sg879
I510
sg880
I76
sg881
I45
sg882
I53
sg883
I102
sg884
I2
sg885
I56
sg886
I22
sg887
I31
sg888
I67
sg889
I15
sg890
I72
sg891
I13
sg892
I56
sg893
I10
sg894
I10
sg895
I1
sg896
I8
sg897
I235
sg898
I20
sg899
I15
sg900
I4
sg901
I1175
sg902
I3
sg352
I13
sg903
I63
sg904
I14
sg905
I61
sg404
I364
sg907
I8
sg908
I66
sg909
I6
sg910
I2
sg483
I16
sg911
I24
sg912
I5
sg913
I251
sg914
I412
sg915
I22
sg916
I66
sg917
I31
sg918
I5
sg919
I1
sg920
I32
sg921
I46
sg922
I25
sg923
I6
sg924
I2
sg548
I7
sg926
I23
sg927
I1
sg928
I12
sg929
I852
sg930
I415
sg931
I3
sg932
I1
sg933
I319
sg934
I21
sg1489
I21
sg936
I21
sg937
I3
sg938
I37
sg666
I25
sg940
I6
sg941
I718
sg942
I1
sg943
I27
sg944
I33
sg945
I2
sg946
I14
sg947
I6
sg948
I2
sg949
I15
sg950
I14
sg951
I658
sg952
I18
sg953
I27
sg954
I23
sg955
I3
sg956
I127
sg957
I1
sg958
I9
sg959
I38
sg960
I72
sg961
I9
sg962
I21
sg963
I251
sg964
I96
sg965
I70
sg966
I17
sg967
I3
sg968
I366
sg969
I21
sg970
I84
sg971
I40
sg972
I18
sg973
I25
sg974
I19
sg975
I43
sg976
I1
sg977
I114
sg978
I1
sg979
I13
sg980
I9
sg981
I76
sg982
I33
sg983
I13
sg1470
I1
sg985
I28
sg986
I765
sg987
I5
sg988
I2
sg989
I43
sg990
I3
sg991
I144
sg992
I322
sg993
I7
sg994
I1843
sg995
I28
sg996
I76
sg997
I66
sg998
I1
sg999
I21
sg1000
I4
sg1001
I9
sg1002
I52
sg1003
I5
sg1004
I579
sg1005
I1
sg1006
I7
sg1007
I9
sg1008
I7
sg1009
I5
sg1010
I23
sg1011
I7
sg528
I48
sg1013
I44
sg1014
I141
sg1015
I84
sg1016
I1
sg164
I6
sg1018
I5
sg1019
I301
sg1020
I8
sg1174
I31
sg1022
I3
sg1023
I66
sg1024
I5
sg1025
I20
sg1026
I1
sg1027
I13
sg1028
I79
sg1029
I5
sg1030
I801
sg1031
I9
sg1032
I143
sg1033
I9
sg1252
I56
sg1035
I32
sg1036
I20
sg1037
I43
sg1038
I4
sg1039
I43
sg1040
I295
sg1041
I30
sg1042
I9
sg1043
I1
sg1044
I44
sg1045
I63
sg1046
I310
sg1047
I20
sg1048
I33
sg1049
I22
sg1050
I24
sg1051
I22
sg1052
I1
sg1053
I30
sg624
I22
sg1054
I56
sg1055
I32
sg1401
I35
sg1057
I958
sg1058
I1
sg1059
I4
sg1060
I9
sg1061
I8
sg1062
I102
sg1063
I14
sg1064
I5
sg1065
I37
sg1066
I23
sg1067
I1
sg1472
I1
sg1069
I66
sg1070
I356
sg1071
I1
sg1072
I29
sg1073
I131
sg1074
I36
sg1075
I80
sg1076
I4
sg1077
I21
sg1078
I128
sg1079
I19
sg1080
I19
sg1081
I104
sg1082
I6
sg1083
I2
sg1084
I4
sg1085
I1876
sg1086
I9
sg1087
I46
sg1088
I15
sg1089
I43
sg1090
I29
sg1091
I5
sg1092
I52
sg457
I9
sg1094
I5
sg1095
I4
sg1096
I2
sg1097
I16
sg1098
I3
sg1099
I51
sg1100
I175
sg1101
I17
sg1102
I217
sg1103
I190
sg1104
I14
sg1105
I9
sg1106
I26
sg1107
I3
sg1108
I13
sg1109
I2
sg1110
I6
sg1111
I6
sg1112
I13
sg1113
I5
sg1114
I522
sg1115
I3
sg186
I12
sg1117
I3
sg1118
I25
sg1119
I251
sg1120
I22
sg1121
I21
sg1122
I153
sg1124
I1
sg1125
I24
sg462
I2
sg1127
I251
sg1128
I37
sg1129
I13
sg1130
I67
sg1131
I29
sg1132
I5
sg1012
I104
sg1133
I22
sg1134
I76
sg1135
I35
sg1136
I252
sg1137
I5
sg1138
I1
sg1139
I7
sg1140
I2
sg1141
I251
sg1142
I89
sg1143
I17
sg1144
I9
sg1145
I16
sg1146
I2
sg1147
I1
sg1148
I43
sg1149
I37
sg1150
I2
sg1151
I52
sg1152
I1782
sg377
I23
sg1154
I1
sg1155
I1
sg403
I1
sg1157
I36
sg1158
I25
sg1159
I24
sg1160
I15
sg1161
I27
sg874
I96
sg1163
I57
sg1164
I45
sg1165
I12
sg1166
I10
sg1167
I4537
sg1168
I169
sg1169
I111
sg1170
I16
sg1171
I23
sg1172
I1
sg1275
I39
sg1021
I31
sg1175
I72
sg1176
I1
sg1177
I1
sg1178
I1
sg196
I9
sg1180
I25
sg1181
I22
sg1182
I9
sg1183
I18
sg1184
I2
sg1185
I1
sg1186
I6
sg1187
I261
sg1188
I50
sg1189
I35
sg1190
I4
sg1191
I22
sg1192
I7771
sg1193
I15
sg1194
I273
sg1195
I32
sg1196
I23
sg473
I21
sg1198
I61
sg1199
I8
sg1200
I1
sg1201
I31
sg1202
I10
sg1203
I131
sg1204
I20
sg1205
I4
sg1206
I13
sg1207
I23
sg1208
I23
sg756
I72
sg1210
I7
sg1211
I1
sg1212
I140
sg1213
I337
sg1214
I12
sg1215
I48
sg1216
I4
sg1217
I1
sg1218
I25
sg1219
I66
sg1220
I40
sg1221
I10
sg1222
I2
sg205
I96
sg1224
I7
sg1225
I52
sg1226
I38
sg1227
I24
sg1228
I97
sg1229
I4
sg1230
I26
sg1231
I27
sg1232
I5
sg1233
I7
sg1234
I1
sg1235
I204
sg1236
I66
sg1237
I10
sg1238
I20
sg1239
I67
sg1240
I13
sg1241
I102
sg1242
I101
sg204
I31
sg1243
I6
sg1244
I76
sg1245
I3
sg1246
I509
sg114
I13
sg1248
I2
sg1249
I18
sg1250
I32
sg1251
I45
sg1034
I3
sg1253
I5
sg1254
I66
sg1255
I96
sg1256
I132
sg1257
I843
sg1258
I356
sg1259
I9
sg1260
I5
sg1261
I13
sg1262
I40
sg1263
I87
sg1264
I31
sg1265
I22
sg1266
I251
sg1267
I37
sg1268
I25
sg1269
I1
sg1270
I14
sg1271
I430
sg1272
I20
sg1273
I69
sg1123
I2
sg1173
I13
sg398
I4
sg1276
I151
sg1277
I430
sg1278
I7
sg1279
I257
sg1280
I219
sg1281
I7
sg1282
I71
sg1283
I67
sg1284
I5
sg1285
I35
sg1286
I20
sg1287
I36
sg1288
I20
sg1289
I12
sg1553
I21
sg1291
I1
sg1292
I251
sg1293
I252
sg1294
I104
sg1295
I150
sg1296
I23
sg1297
I105
sg1298
I1166
sg1299
I17
sg1300
I66
sg1301
I15
sg1302
I3
sg1303
I9
sg1304
I524
sg1305
I20
sg1306
I123
sg1307
I2
sg1308
I26
sg1309
I89
sg1310
I9
sg1311
I67
sg1312
I66
sg1313
I2
sg1314
I4
sg1315
I252
sg1316
I140
sg1317
I6434
sg1318
I158
sg1319
I96
sg1320
I1
sg1321
I4
sg1322
I1
sg496
I17
sg1324
I1
sg1325
I25
sg1326
I12
sg1327
I5
sg1328
I430
sg1329
I67
sg1330
I104
sg1331
I30
sg1332
I3
sg1333
I133
sg1334
I430
sg1335
I5
sg1559
I5
sg1337
I81
sg1338
I52
sg1339
I16
sg1340
I52
sg1341
I80
sg1342
I95
sg1343
I2
sg1344
I49
sg1345
I4
sg1346
I1
sg1347
I43
sg1348
I189
sg446
I2
sg1350
I40
sg1351
I8
sg1352
I93
sg1353
I96
sg1354
I55
sg1355
I74
sg1356
I32
sg1357
I12
sg1358
I828
sg1359
I2
sg1360
I41
sg1361
I43
sg1362
I7
sg1363
I5
sg1364
I72
sg1365
I2
sg1366
I2
sg1367
I5
sg1368
I12
sg1369
I22
sg1370
I15
sg1371
I33
sg1372
I15
sg1373
I5
sg1374
I616
sg1375
I1
sg1376
I171
sg1377
I5
sg1378
I13
sg1566
I170
sg1379
I1
sg1380
I197
sg151
I5
sg1382
I21
sg1383
I461
sg1384
I9
sg1385
I238
sg1386
I43
sg1387
I4
sg1388
I311
sg1389
I4
sg1390
I1
sg1391
I31
sg1392
I3
sg1393
I47
sg1394
I23
sg1395
I72
sg1396
I76
sg1397
I1
sg1398
I1
sg1399
I52
sg1400
I4
sg1056
I8
sg1402
I3
sg1403
I251
sg509
I2
sg1405
I65
sg1406
I1
sg1407
I22
sg1408
I3
sg1409
I48
sg1410
I33
sg1411
I66
sg1412
I12
sg1413
I4
sg1414
I7
sg1415
I76
sg1416
I73
sg1417
I23
sg1418
I4
sg1419
I665
sg1420
I514
sg1421
I254
sg178
I105
sg1422
I29
sg1423
I1
sg1424
I7
sg1425
I1
sg1426
I15
sg1427
I76
sg1428
I302
sg1429
I8
sg1430
I1
sg1431
I150
sg1432
I43
sg1433
I314
sg1434
I71
sg1435
I114
sg648
I22
sg1437
I6
sg1438
I8
sg1439
I25
sg1440
I14
sg1441
I169
sg1442
I4
sg1443
I25
sg1444
I17
sg1445
I22
sg1446
I19
sg524
I4
sg1448
I3
sg1449
I21
sg1450
I3
sg1451
I65
sg1452
I2
sg1453
I663
sg686
I19
sg1454
I55
sg1455
I5
sg1456
I9
sg1457
I356
sg1458
I12
sg1459
I1
sg1460
I14
sg1461
I1
sg1462
I114
sg1463
I173
sg1464
I2
sg759
I43
sg1466
I2
sg1467
I1
sg1468
I40
sg1469
I6
sg1471
I14
sg1068
I189
sg1473
I9
sg1474
I43
sg1475
I22
sg1476
I725
sg1477
I1
sg1478
I25
sg1479
I20
sg1480
I114
sg1481
I47
sg1482
I7
sg1483
I1
sg1484
I9
sg1485
I3
sg1486
I13
sg1487
I1
sg1488
I2
sg935
I4
sg1490
I89
sg1491
I1
sg1492
I21
sg1493
I25
sg1494
I1
sg1495
I12
sg1496
I435
sg1497
I8
sg1498
I4
sg1499
I104
sg1500
I85
sg1501
I1
sg1502
I20
sg1503
I9
sg1504
I116
sg1505
I46
sg1506
I235
sg1507
I37
sg1508
I13
sg1509
I510
sg1510
I13
sg1511
I296
sg1512
I1
sg1513
I44
sg1514
I5
sg1515
I23
sg1516
I52
sg1517
I6
sg1518
I66
sg1519
I28
sg1520
I5
sg1521
I25
sg1522
I10
sg1523
I208
sg1524
I114
sg1525
I66
sg1526
I10
sg1527
I140
sg1528
I1
sg1529
I66
sg1530
I73
sg1531
I8
sg1532
I16
sg1533
I23
sg1534
I144
sg1535
I1
sg1536
I84
sg1537
I13
sg1538
I14
sg1539
I4
sg1540
I31
sg1541
I2
sg1542
I21
sg1543
I2
sg1544
I21
sg1545
I251
sg1546
I9
sg1547
I251
sg1548
I386
sg1549
I23
sg1550
I29
sg1551
I7
sg1552
I19
sg1290
I24
sg1554
I19
sg1555
I14
sg1556
I12
sg1557
I46
sg1558
I147
sg1336
I32
sg1560
I23
sg1561
I14
sg1562
I69
sg1563
I71
sg1564
I21
sg1565
I144
sg1349
I10
sg1567
I3
sg1569
I79
sg1571
I67
sg1572
I4
sg1573
I14
sg1574
I7
sg1575
I23
sg1576
I25
sg1577
I6
sg1578
I52
sg1579
I139
sg1580
I144
sg1581
I123
sg1582
I14
sg1583
I4588
sg1584
I320
sg1585
I1
sg1586
I43
sg1587
I1
sg1588
I23
sg1589
I24
sg1590
I251
sg1591
I32
sg1592
I6
sg1593
I72
sg1594
I14240
sg1595
I8
sg1596
I13
sg1597
I124
sg1598
I1
sg1599
I356
sg1600
I460
sg1601
I15
sg1602
I1
sg1603
I10
sg1604
I85
sg1605
I2
sg1606
I13
sg549
I4
sg824
I5
sg1609
I20
sg1610
I1
sg1611
I7
ssS'index_docs'
p3228
(dp3229
I1
I24232
sI2
I14240
sI3
I7771
sI4
I6434
sI5
I4307
sI6
I4588
sI7
I4537
sI8
I4413
sI9
I2597
sI10
I2610
sI11
I2604
sI12
I1661
sI13
I1920
sI14
I1940
sI15
I1876
sI16
I1896
sI17
I1863
sI18
I1843
sI19
I397
sI20
I1782
sI21
I1175
sI22
I1417
sI23
I852
sI24
I468
sI25
I699
sI26
I1166
sI27
I828
sI28
I522
sI29
I1005
sI30
I534
sI31
I1029
sI32
I693
sI33
I992
sI34
I958
sI35
I665
sI36
I663
sI37
I471
sI38
I946
sI39
I888
sI40
I843
sI41
I452
sI42
I457
sI43
I801
sI44
I795
sI45
I794
sI46
I794
sI47
I782
sI48
I725
sI49
I765
sI50
I718
sI51
I658
sI52
I602
sI53
I466
sI54
I356
sI55
I356
sI56
I612
sI57
I579
sI58
I630
sI59
I616
sI60
I314
sI61
I524
sI62
I617
sI63
I601
sI64
I302
sI65
I296
sI66
I305
sI67
I509
sI68
I529
sI69
I538
sI70
I284
sI71
I526
sI72
I514
sI73
I257
sI74
I510
sI75
I510
sI76
I510
sI77
I257
sI78
I252
sI79
I461
sI80
I251
sI81
I474
sI82
I481
sI83
I471
sI84
I460
sI85
I408
sI86
I104
sI87
I172
sI88
I306
sI89
I435
sI90
I399
sI91
I430
sI92
I430
sI93
I430
sI94
I430
sI95
I430
sI96
I310
sI97
I420
sI98
I412
sI99
I415
sI100
I376
sI101
I273
sI102
I219
sI103
I386
sI104
I378
sI105
I189
sI106
I254
sI107
I370
sI108
I366
sI109
I123
sI110
I97
sI111
I206
sI112
I139
sI113
I364
sI114
I311
sI115
I356
sI116
I350
sI117
I356
sI118
I356
sI119
I356
sI120
I356
sI121
I356
sI122
I356
sI123
I356
sI124
I345
sI125
I319
sI126
I337
sI127
I333
sI128
I298
sI129
I112
sI130
I133
sI131
I320
sI132
I322
sI133
I320
sI134
I316
sI135
I314
sI136
I314
sI137
I104
sI138
I305
sI139
I305
sI140
I140
sI141
I301
sI142
I295
sI143
I296
sI144
I296
sI145
I296
sI146
I296
sI147
I295
sI148
I217
sI149
I221
sI150
I286
sI151
I279
sI152
I250
sI153
I217
sI154
I261
sI155
I126
sI156
I201
sI157
I252
sI158
I254
sI159
I65
sI160
I235
sI161
I252
sI162
I252
sI163
I252
sI164
I252
sI165
I252
sI166
I251
sI167
I251
sI168
I251
sI169
I251
sI170
I251
sI171
I251
sI172
I251
sI173
I251
sI174
I251
sI175
I251
sI176
I251
sI177
I251
sI178
I251
sI179
I251
sI180
I251
sI181
I251
sI182
I251
sI183
I251
sI184
I251
sI185
I251
sI186
I244
sI187
I123
sI188
I123
sI189
I123
sI190
I123
sI191
I238
sI192
I235
sI193
I237
sI194
I237
sI195
I231
sI196
I221
sI197
I54
sI198
I173
sI199
I131
sI200
I208
sI201
I204
sI202
I159
sI203
I200
sI204
I197
sI205
I93
sI206
I195
sI207
I195
sI208
I96
sI209
I151
sI210
I190
sI211
I189
sI212
I189
sI213
I189
sI214
I189
sI215
I133
sI216
I100
sI217
I170
sI218
I170
sI219
I170
sI220
I61
sI221
I181
sI222
I175
sI223
I175
sI224
I135
sI225
I161
sI226
I171
sI227
I169
sI228
I169
sI229
I169
sI230
I87
sI231
I80
sI232
I156
sI233
I158
sI234
I155
sI235
I156
sI236
I156
sI237
I153
sI238
I79
sI239
I71
sI240
I150
sI241
I150
sI242
I150
sI243
I150
sI244
I150
sI245
I147
sI246
I144
sI247
I74
sI248
I144
sI249
I144
sI250
I144
sI251
I144
sI252
I144
sI253
I144
sI254
I144
sI255
I144
sI256
I144
sI257
I72
sI258
I143
sI259
I142
sI260
I141
sI261
I47
sI262
I140
sI263
I140
sI264
I140
sI265
I140
sI266
I111
sI267
I129
sI268
I139
sI269
I139
sI270
I133
sI271
I132
sI272
I132
sI273
I132
sI274
I66
sI275
I66
sI276
I66
sI277
I131
sI278
I65
sI279
I43
sI280
I128
sI281
I127
sI282
I127
sI283
I84
sI284
I125
sI285
I124
sI286
I85
sI287
I50
sI288
I41
sI289
I123
sI290
I123
sI291
I123
sI292
I123
sI293
I119
sI294
I59
sI295
I59
sI296
I59
sI297
I114
sI298
I116
sI299
I114
sI300
I114
sI301
I115
sI302
I115
sI303
I114
sI304
I114
sI305
I114
sI306
I114
sI307
I114
sI308
I114
sI309
I114
sI310
I114
sI311
I71
sI312
I76
sI313
I105
sI314
I105
sI315
I105
sI316
I104
sI317
I105
sI318
I101
sI319
I104
sI320
I104
sI321
I104
sI322
I104
sI323
I103
sI324
I103
sI325
I102
sI326
I102
sI327
I102
sI328
I102
sI329
I102
sI330
I102
sI331
I102
sI332
I85
sI333
I98
sI334
I97
sI335
I50
sI336
I96
sI337
I96
sI338
I96
sI339
I96
sI340
I96
sI341
I96
sI342
I96
sI343
I96
sI344
I96
sI345
I96
sI346
I95
sI347
I65
sI348
I70
sI349
I89
sI350
I89
sI351
I89
sI352
I89
sI353
I88
sI354
I87
sI355
I86
sI356
I32
sI357
I43
sI358
I43
sI359
I43
sI360
I43
sI361
I43
sI362
I43
sI363
I43
sI364
I85
sI365
I85
sI366
I85
sI367
I85
sI368
I85
sI369
I85
sI370
I85
sI371
I77
sI372
I84
sI373
I84
sI374
I84
sI375
I84
sI376
I12
sI377
I75
sI378
I41
sI379
I78
sI380
I82
sI381
I81
sI382
I81
sI383
I81
sI384
I45
sI385
I80
sI386
I80
sI387
I80
sI388
I69
sI389
I79
sI390
I79
sI391
I79
sI392
I40
sI393
I63
sI394
I46
sI395
I76
sI396
I19
sI397
I76
sI398
I76
sI399
I76
sI400
I76
sI401
I76
sI402
I76
sI403
I76
sI404
I76
sI405
I76
sI406
I58
sI407
I75
sI408
I73
sI409
I73
sI410
I28
sI411
I37
sI412
I37
sI413
I71
sI414
I36
sI415
I72
sI416
I72
sI417
I72
sI418
I72
sI419
I72
sI420
I72
sI421
I72
sI422
I72
sI423
I72
sI424
I72
sI425
I72
sI426
I72
sI427
I72
sI428
I72
sI429
I72
sI430
I43
sI431
I72
sI432
I71
sI433
I69
sI434
I71
sI435
I63
sI436
I70
sI437
I70
sI438
I70
sI439
I70
sI440
I69
sI441
I46
sI442
I70
sI443
I45
sI444
I65
sI445
I68
sI446
I68
sI447
I67
sI448
I67
sI449
I67
sI450
I67
sI451
I67
sI452
I67
sI453
I67
sI454
I67
sI455
I67
sI456
I67
sI457
I67
sI458
I67
sI459
I67
sI460
I67
sI461
I63
sI462
I66
sI463
I33
sI464
I59
sI465
I66
sI466
I66
sI467
I66
sI468
I66
sI469
I66
sI470
I66
sI471
I66
sI472
I66
sI473
I66
sI474
I66
sI475
I66
sI476
I66
sI477
I66
sI478
I66
sI479
I66
sI480
I66
sI481
I66
sI482
I66
sI483
I66
sI484
I66
sI485
I66
sI486
I66
sI487
I66
sI488
I65
sI489
I39
sI490
I31
sI491
I62
sI492
I61
sI493
I61
sI494
I61
sI495
I61
sI496
I61
sI497
I61
sI498
I61
sI499
I60
sI500
I56
sI501
I59
sI502
I59
sI503
I56
sI504
I56
sI505
I56
sI506
I29
sI507
I57
sI508
I57
sI509
I56
sI510
I56
sI511
I56
sI512
I56
sI513
I56
sI514
I55
sI515
I55
sI516
I53
sI517
I55
sI518
I55
sI519
I55
sI520
I54
sI521
I27
sI522
I54
sI523
I53
sI524
I28
sI525
I53
sI526
I53
sI527
I52
sI528
I52
sI529
I52
sI530
I52
sI531
I52
sI532
I52
sI533
I52
sI534
I52
sI535
I52
sI536
I52
sI537
I52
sI538
I52
sI539
I52
sI540
I52
sI541
I52
sI542
I52
sI543
I52
sI544
I52
sI545
I52
sI546
I52
sI547
I52
sI548
I52
sI549
I51
sI550
I51
sI551
I18
sI552
I51
sI553
I48
sI554
I43
sI555
I26
sI556
I49
sI557
I49
sI558
I49
sI559
I48
sI560
I48
sI561
I48
sI562
I48
sI563
I48
sI564
I47
sI565
I16
sI566
I46
sI567
I47
sI568
I47
sI569
I47
sI570
I47
sI571
I47
sI572
I37
sI573
I46
sI574
I46
sI575
I46
sI576
I46
sI577
I46
sI578
I23
sI579
I44
sI580
I45
sI581
I45
sI582
I45
sI583
I45
sI584
I45
sI585
I45
sI586
I45
sI587
I45
sI588
I44
sI589
I44
sI590
I44
sI591
I44
sI592
I44
sI593
I44
sI594
I43
sI595
I43
sI596
I43
sI597
I43
sI598
I43
sI599
I43
sI600
I43
sI601
I43
sI602
I43
sI603
I43
sI604
I43
sI605
I43
sI606
I43
sI607
I43
sI608
I43
sI609
I43
sI610
I43
sI611
I21
sI612
I39
sI613
I39
sI614
I21
sI615
I21
sI616
I41
sI617
I41
sI618
I41
sI619
I41
sI620
I41
sI621
I39
sI622
I41
sI623
I40
sI624
I40
sI625
I40
sI626
I40
sI627
I40
sI628
I40
sI629
I40
sI630
I40
sI631
I40
sI632
I8
sI633
I13
sI634
I34
sI635
I38
sI636
I38
sI637
I20
sI638
I38
sI639
I38
sI640
I38
sI641
I19
sI642
I35
sI643
I37
sI644
I37
sI645
I37
sI646
I37
sI647
I37
sI648
I37
sI649
I37
sI650
I37
sI651
I37
sI652
I37
sI653
I37
sI654
I37
sI655
I37
sI656
I36
sI657
I36
sI658
I36
sI659
I36
sI660
I36
sI661
I36
sI662
I34
sI663
I35
sI664
I33
sI665
I14
sI666
I35
sI667
I35
sI668
I35
sI669
I35
sI670
I35
sI671
I33
sI672
I33
sI673
I33
sI674
I33
sI675
I33
sI676
I33
sI677
I32
sI678
I32
sI679
I19
sI680
I32
sI681
I32
sI682
I32
sI683
I32
sI684
I32
sI685
I32
sI686
I32
sI687
I32
sI688
I32
sI689
I32
sI690
I31
sI691
I31
sI692
I31
sI693
I31
sI694
I31
sI695
I31
sI696
I31
sI697
I31
sI698
I31
sI699
I31
sI700
I31
sI701
I31
sI702
I31
sI703
I31
sI704
I31
sI705
I30
sI706
I30
sI707
I30
sI708
I24
sI709
I29
sI710
I29
sI711
I29
sI712
I29
sI713
I29
sI714
I29
sI715
I29
sI716
I29
sI717
I29
sI718
I29
sI719
I29
sI720
I28
sI721
I28
sI722
I28
sI723
I28
sI724
I27
sI725
I27
sI726
I27
sI727
I27
sI728
I27
sI729
I27
sI730
I27
sI731
I9
sI732
I26
sI733
I26
sI734
I26
sI735
I26
sI736
I26
sI737
I26
sI738
I13
sI739
I13
sI740
I25
sI741
I25
sI742
I25
sI743
I25
sI744
I25
sI745
I25
sI746
I25
sI747
I25
sI748
I25
sI749
I25
sI750
I25
sI751
I25
sI752
I25
sI753
I25
sI754
I25
sI755
I25
sI756
I25
sI757
I25
sI758
I25
sI759
I25
sI760
I25
sI761
I25
sI762
I25
sI763
I25
sI764
I25
sI765
I25
sI766
I25
sI767
I25
sI768
I15
sI769
I15
sI770
I24
sI771
I24
sI772
I24
sI773
I24
sI774
I24
sI775
I24
sI776
I24
sI777
I24
sI778
I24
sI779
I8
sI780
I24
sI781
I24
sI782
I24
sI783
I23
sI784
I23
sI785
I23
sI786
I23
sI787
I23
sI788
I23
sI789
I23
sI790
I23
sI791
I23
sI792
I23
sI793
I23
sI794
I23
sI795
I23
sI796
I23
sI797
I23
sI798
I23
sI799
I23
sI800
I23
sI801
I23
sI802
I23
sI803
I23
sI804
I23
sI805
I23
sI806
I23
sI807
I23
sI808
I23
sI809
I23
sI810
I23
sI811
I23
sI812
I23
sI813
I23
sI814
I22
sI815
I22
sI816
I22
sI817
I22
sI818
I22
sI819
I22
sI820
I22
sI821
I22
sI822
I22
sI823
I22
sI824
I22
sI825
I22
sI826
I22
sI827
I22
sI828
I22
sI829
I22
sI830
I22
sI831
I22
sI832
I22
sI833
I22
sI834
I22
sI835
I22
sI836
I22
sI837
I22
sI838
I22
sI839
I22
sI840
I22
sI841
I22
sI842
I22
sI843
I22
sI844
I22
sI845
I21
sI846
I7
sI847
I21
sI848
I21
sI849
I21
sI850
I21
sI851
I15
sI852
I21
sI853
I21
sI854
I21
sI855
I21
sI856
I21
sI857
I21
sI858
I21
sI859
I21
sI860
I21
sI861
I21
sI862
I21
sI863
I21
sI864
I21
sI865
I21
sI866
I21
sI867
I21
sI868
I21
sI869
I21
sI870
I21
sI871
I21
sI872
I21
sI873
I20
sI874
I20
sI875
I20
sI876
I20
sI877
I20
sI878
I20
sI879
I20
sI880
I20
sI881
I20
sI882
I20
sI883
I20
sI884
I20
sI885
I20
sI886
I20
sI887
I20
sI888
I20
sI889
I20
sI890
I20
sI891
I20
sI892
I20
sI893
I20
sI894
I20
sI895
I20
sI896
I20
sI897
I20
sI898
I20
sI899
I16
sI900
I10
sI901
I19
sI902
I19
sI903
I19
sI904
I19
sI905
I19
sI906
I19
sI907
I19
sI908
I19
sI909
I19
sI910
I19
sI911
I19
sI912
I19
sI913
I19
sI914
I19
sI915
I19
sI916
I18
sI917
I18
sI918
I18
sI919
I18
sI920
I18
sI921
I18
sI922
I9
sI923
I16
sI924
I18
sI925
I18
sI926
I9
sI927
I9
sI928
I18
sI929
I18
sI930
I9
sI931
I9
sI932
I17
sI933
I16
sI934
I17
sI935
I17
sI936
I17
sI937
I17
sI938
I9
sI939
I17
sI940
I17
sI941
I17
sI942
I10
sI943
I17
sI944
I16
sI945
I17
sI946
I8
sI947
I16
sI948
I16
sI949
I16
sI950
I16
sI951
I15
sI952
I16
sI953
I16
sI954
I16
sI955
I16
sI956
I16
sI957
I16
sI958
I16
sI959
I16
sI960
I16
sI961
I16
sI962
I16
sI963
I16
sI964
I16
sI965
I16
sI966
I16
sI967
I15
sI968
I15
sI969
I15
sI970
I15
sI971
I15
sI972
I15
sI973
I15
sI974
I15
sI975
I5
sI976
I15
sI977
I15
sI978
I15
sI979
I15
sI980
I15
sI981
I15
sI982
I15
sI983
I15
sI984
I15
sI985
I15
sI986
I15
sI987
I15
sI988
I15
sI989
I15
sI990
I14
sI991
I14
sI992
I14
sI993
I14
sI994
I14
sI995
I14
sI996
I14
sI997
I14
sI998
I14
sI999
I14
sI1000
I14
sI1001
I14
sI1002
I14
sI1003
I14
sI1004
I14
sI1005
I14
sI1006
I14
sI1007
I14
sI1008
I14
sI1009
I14
sI1010
I14
sI1011
I7
sI1012
I9
sI1013
I14
sI1014
I14
sI1015
I14
sI1016
I14
sI1017
I13
sI1018
I13
sI1019
I13
sI1020
I13
sI1021
I13
sI1022
I13
sI1023
I13
sI1024
I13
sI1025
I13
sI1026
I13
sI1027
I13
sI1028
I13
sI1029
I13
sI1030
I13
sI1031
I13
sI1032
I13
sI1033
I13
sI1034
I13
sI1035
I13
sI1036
I13
sI1037
I13
sI1038
I13
sI1039
I13
sI1040
I13
sI1041
I13
sI1042
I13
sI1043
I13
sI1044
I13
sI1045
I13
sI1046
I13
sI1047
I13
sI1048
I13
sI1049
I13
sI1050
I13
sI1051
I13
sI1052
I13
sI1053
I13
sI1054
I13
sI1055
I13
sI1056
I6
sI1057
I12
sI1058
I12
sI1059
I12
sI1060
I12
sI1061
I12
sI1062
I12
sI1063
I12
sI1064
I12
sI1065
I12
sI1066
I12
sI1067
I12
sI1068
I12
sI1069
I12
sI1070
I12
sI1071
I12
sI1072
I12
sI1073
I12
sI1074
I12
sI1075
I12
sI1076
I12
sI1077
I12
sI1078
I12
sI1079
I12
sI1080
I12
sI1081
I12
sI1082
I12
sI1083
I12
sI1084
I6
sI1085
I11
sI1086
I11
sI1087
I10
sI1088
I10
sI1089
I10
sI1090
I10
sI1091
I10
sI1092
I5
sI1093
I5
sI1094
I5
sI1095
I5
sI1096
I5
sI1097
I10
sI1098
I10
sI1099
I10
sI1100
I10
sI1101
I10
sI1102
I10
sI1103
I10
sI1104
I10
sI1105
I10
sI1106
I10
sI1107
I10
sI1108
I5
sI1109
I5
sI1110
I10
sI1111
I10
sI1112
I10
sI1113
I10
sI1114
I10
sI1115
I5
sI1116
I10
sI1117
I10
sI1118
I10
sI1119
I9
sI1120
I9
sI1121
I8
sI1122
I9
sI1123
I9
sI1124
I9
sI1125
I9
sI1126
I9
sI1127
I9
sI1128
I9
sI1129
I3
sI1130
I9
sI1131
I9
sI1132
I9
sI1133
I9
sI1134
I9
sI1135
I9
sI1136
I9
sI1137
I9
sI1138
I9
sI1139
I9
sI1140
I9
sI1141
I9
sI1142
I9
sI1143
I9
sI1144
I9
sI1145
I9
sI1146
I9
sI1147
I9
sI1148
I9
sI1149
I9
sI1150
I9
sI1151
I9
sI1152
I9
sI1153
I9
sI1154
I8
sI1155
I8
sI1156
I8
sI1157
I8
sI1158
I8
sI1159
I8
sI1160
I8
sI1161
I8
sI1162
I8
sI1163
I8
sI1164
I8
sI1165
I8
sI1166
I8
sI1167
I8
sI1168
I8
sI1169
I8
sI1170
I8
sI1171
I8
sI1172
I8
sI1173
I8
sI1174
I8
sI1175
I8
sI1176
I7
sI1177
I7
sI1178
I7
sI1179
I7
sI1180
I7
sI1181
I7
sI1182
I7
sI1183
I7
sI1184
I7
sI1185
I7
sI1186
I7
sI1187
I7
sI1188
I7
sI1189
I7
sI1190
I7
sI1191
I7
sI1192
I7
sI1193
I7
sI1194
I7
sI1195
I7
sI1196
I7
sI1197
I7
sI1198
I7
sI1199
I7
sI1200
I7
sI1201
I7
sI1202
I7
sI1203
I7
sI1204
I7
sI1205
I7
sI1206
I7
sI1207
I7
sI1208
I6
sI1209
I6
sI1210
I6
sI1211
I3
sI1212
I6
sI1213
I6
sI1214
I6
sI1215
I6
sI1216
I6
sI1217
I6
sI1218
I6
sI1219
I6
sI1220
I6
sI1221
I6
sI1222
I6
sI1223
I4
sI1224
I6
sI1225
I6
sI1226
I6
sI1227
I6
sI1228
I6
sI1229
I6
sI1230
I6
sI1231
I6
sI1232
I3
sI1233
I6
sI1234
I6
sI1235
I6
sI1236
I6
sI1237
I5
sI1238
I2
sI1239
I5
sI1240
I5
sI1241
I5
sI1242
I5
sI1243
I5
sI1244
I5
sI1245
I5
sI1246
I5
sI1247
I5
sI1248
I5
sI1249
I5
sI1250
I5
sI1251
I5
sI1252
I5
sI1253
I5
sI1254
I5
sI1255
I5
sI1256
I5
sI1257
I5
sI1258
I5
sI1259
I5
sI1260
I5
sI1261
I5
sI1262
I5
sI1263
I5
sI1264
I5
sI1265
I5
sI1266
I5
sI1267
I5
sI1268
I5
sI1269
I5
sI1270
I5
sI1271
I5
sI1272
I5
sI1273
I5
sI1274
I5
sI1275
I5
sI1276
I5
sI1277
I5
sI1278
I5
sI1279
I5
sI1280
I5
sI1281
I5
sI1282
I5
sI1283
I5
sI1284
I5
sI1285
I5
sI1286
I5
sI1287
I5
sI1288
I5
sI1289
I5
sI1290
I5
sI1291
I5
sI1292
I5
sI1293
I5
sI1294
I5
sI1295
I5
sI1296
I5
sI1297
I4
sI1298
I4
sI1299
I4
sI1300
I4
sI1301
I4
sI1302
I4
sI1303
I4
sI1304
I4
sI1305
I4
sI1306
I4
sI1307
I4
sI1308
I4
sI1309
I4
sI1310
I4
sI1311
I4
sI1312
I4
sI1313
I4
sI1314
I4
sI1315
I4
sI1316
I4
sI1317
I4
sI1318
I4
sI1319
I4
sI1320
I4
sI1321
I4
sI1322
I1
sI1323
I4
sI1324
I4
sI1325
I4
sI1326
I4
sI1327
I4
sI1328
I4
sI1329
I4
sI1330
I4
sI1331
I4
sI1332
I4
sI1333
I4
sI1334
I4
sI1335
I4
sI1336
I4
sI1337
I4
sI1338
I4
sI1339
I4
sI1340
I4
sI1341
I4
sI1342
I4
sI1343
I4
sI1344
I4
sI1345
I4
sI1346
I4
sI1347
I4
sI1348
I4
sI1349
I4
sI1350
I4
sI1351
I1
sI1352
I4
sI1353
I2
sI1354
I3
sI1355
I3
sI1356
I3
sI1357
I3
sI1358
I3
sI1359
I3
sI1360
I3
sI1361
I3
sI1362
I3
sI1363
I3
sI1364
I3
sI1365
I3
sI1366
I3
sI1367
I3
sI1368
I3
sI1369
I3
sI1370
I3
sI1371
I3
sI1372
I1
sI1373
I3
sI1374
I3
sI1375
I3
sI1376
I3
sI1377
I3
sI1378
I3
sI1379
I3
sI1380
I3
sI1381
I3
sI1382
I3
sI1383
I3
sI1384
I3
sI1385
I3
sI1386
I3
sI1387
I3
sI1388
I3
sI1389
I3
sI1390
I3
sI1391
I3
sI1392
I2
sI1393
I3
sI1394
I2
sI1395
I2
sI1396
I2
sI1397
I2
sI1398
I2
sI1399
I2
sI1400
I2
sI1401
I2
sI1402
I2
sI1403
I2
sI1404
I2
sI1405
I1
sI1406
I2
sI1407
I2
sI1408
I2
sI1409
I2
sI1410
I2
sI1411
I2
sI1412
I2
sI1413
I2
sI1414
I2
sI1415
I2
sI1416
I2
sI1417
I2
sI1418
I2
sI1419
I2
sI1420
I2
sI1421
I2
sI1422
I2
sI1423
I2
sI1424
I2
sI1425
I2
sI1426
I2
sI1427
I2
sI1428
I2
sI1429
I2
sI1430
I1
sI1431
I2
sI1432
I2
sI1433
I2
sI1434
I2
sI1435
I1
sI1436
I2
sI1437
I2
sI1438
I2
sI1439
I2
sI1440
I2
sI1441
I2
sI1442
I2
sI1443
I2
sI1444
I2
sI1445
I2
sI1446
I2
sI1447
I2
sI1448
I1
sI1449
I1
sI1450
I1
sI1451
I1
sI1452
I1
sI1453
I1
sI1454
I1
sI1455
I1
sI1456
I1
sI1457
I1
sI1458
I1
sI1459
I1
sI1460
I1
sI1461
I1
sI1462
I1
sI1463
I1
sI1464
I1
sI1465
I1
sI1466
I1
sI1467
I1
sI1468
I1
sI1469
I1
sI1470
I1
sI1471
I1
sI1472
I1
sI1473
I1
sI1474
I1
sI1475
I1
sI1476
I1
sI1477
I1
sI1478
I1
sI1479
I1
sI1480
I1
sI1481
I1
sI1482
I1
sI1483
I1
sI1484
I1
sI1485
I1
sI1486
I1
sI1487
I1
sI1488
I1
sI1489
I1
sI1490
I1
sI1491
I1
sI1492
I1
sI1493
I1
sI1494
I1
sI1495
I1
sI1496
I1
sI1497
I1
sI1498
I1
sI1499
I1
sI1500
I1
sI1501
I1
sI1502
I1
sI1503
I1
sI1504
I1
sI1505
I1
sI1506
I1
sI1507
I1
sI1508
I1
sI1509
I1
sI1510
I1
sI1511
I1
sI1512
I1
sI1513
I1
sI1514
I1
sI1515
I1
sI1516
I1
sI1517
I1
sI1518
I1
sI1519
I1
sI1520
I1
sI1521
I1
sI1522
I1
sI1523
I1
sI1524
I1
sI1525
I1
sI1526
I1
sI1527
I1
sI1528
I1
sI1529
I1
sI1530
I1
sI1531
I1
sI1532
I1
sI1533
I1
sI1534
I1
sI1535
I1
sI1536
I1
sI1537
I1
sI1538
I1
sI1539
I1
sI1540
I1
sI1541
I1
sI1542
I1
sI1543
I1
sI1544
I1
sI1545
I1
sI1546
I1
sI1547
I1
sI1548
I1
sI1549
I1
sI1550
I1
sI1551
I1
sI1552
I1
sI1553
I1
sI1554
I1
sI1555
I1
sI1556
I1
sI1557
I1
sI1558
I1
sI1559
I1
sI1560
I1
sI1561
I1
sI1562
I1
sI1563
I1
sI1564
I1
sI1565
I1
sI1566
I1
sI1567
I1
sI1568
I1
sI1569
I1
sI1570
I1
sI1571
I1
sI1572
I1
sI1573
I1
sI1574
I1
sI1575
I1
sI1576
I1
sI1577
I1
sI1578
I1
sI1579
I1
sI1580
I1
sI1581
I1
sI1582
I1
sI1583
I1
sI1584
I1
sI1585
I1
sI1586
I1
sI1587
I1
sI1588
I1
sI1589
I1
sI1590
I1
sI1591
I1
sI1592
I1
sI1593
I1
sI1594
I1
sI1595
I1
sI1596
I1
sI1597
I1
sI1598
I1
sI1599
I1
sI1600
I1
sI1601
I1
sI1602
I1
sI1603
I1
ssS'document_count'
p3230
I24321
sS'num_words'
p3231
Nsb.